
================================================================================

Section Cross References

    image2dlms.o(init) refers to ql_main.o(i.ql_main) for ql_main
    ql_func.o(i.Ql_itoa) refers to ql_func.o(.bss) for .bss$2
    ql_func.o(i.Ql_itoa) refers to ql_func.o(.constdata) for .constdata$1
    ql_func.o(i.Ql_itof) refers to ql_func.o(.bss) for .bss$2
    ql_func.o(i.Ql_itof) refers to ql_func.o(.constdata) for .constdata$1
    ql_func.o(i.Ql_atof) refers to ql_func.o(.bss) for .bss$2
    ql_func.o(i.Ql_atof) refers to ql_func.o(.constdata) for .constdata$1
    ql_func.o(i.Ql_strcpy) refers to ql_func.o(.bss) for .bss$2
    ql_func.o(i.Ql_strcpy) refers to ql_func.o(.constdata) for .constdata$1
    ql_func.o(i.Ql_strncpy) refers to ql_func.o(.bss) for .bss$2
    ql_func.o(i.Ql_strncpy) refers to ql_func.o(.constdata) for .constdata$1
    ql_func.o(i.Ql_strcat) refers to ql_func.o(.bss) for .bss$2
    ql_func.o(i.Ql_strcat) refers to ql_func.o(.constdata) for .constdata$1
    ql_func.o(i.Ql_strncat) refers to ql_func.o(.bss) for .bss$2
    ql_func.o(i.Ql_strncat) refers to ql_func.o(.constdata) for .constdata$1
    ql_func.o(i.Ql_strlen) refers to ql_func.o(.bss) for .bss$2
    ql_func.o(i.Ql_strlen) refers to ql_func.o(.constdata) for .constdata$1
    ql_func.o(i.Ql_strcmp) refers to ql_func.o(.bss) for .bss$2
    ql_func.o(i.Ql_strcmp) refers to ql_func.o(.constdata) for .constdata$1
    ql_func.o(i.Ql_strncmp) refers to ql_func.o(.bss) for .bss$2
    ql_func.o(i.Ql_strncmp) refers to ql_func.o(.constdata) for .constdata$1
    ql_func.o(i.Ql_memset) refers to ql_func.o(.bss) for .bss$2
    ql_func.o(i.Ql_memset) refers to ql_func.o(.constdata) for .constdata$1
    ql_func.o(i.Ql_memcpy) refers to ql_func.o(.bss) for .bss$2
    ql_func.o(i.Ql_memcpy) refers to ql_func.o(.constdata) for .constdata$1
    ql_func.o(i.Ql_memcmp) refers to ql_func.o(.bss) for .bss$2
    ql_func.o(i.Ql_memcmp) refers to ql_func.o(.constdata) for .constdata$1
    ql_func.o(i.Ql_memmove) refers to ql_func.o(.bss) for .bss$2
    ql_func.o(i.Ql_memmove) refers to ql_func.o(.constdata) for .constdata$1
    ql_func.o(i.Ql_strstr) refers to ql_func.o(.bss) for .bss$2
    ql_func.o(i.Ql_strstr) refers to ql_func.o(.constdata) for .constdata$1
    ql_func.o(i.Ql_strchr) refers to ql_func.o(.bss) for .bss$2
    ql_func.o(i.Ql_strchr) refers to ql_func.o(.constdata) for .constdata$1
    ql_func.o(i.Ql_SetDebugMode) refers to ql_func.o(.bss) for .bss$2
    ql_func.o(i.Ql_SetDebugMode) refers to ql_func.o(.constdata) for .constdata$1
    ql_func.o(i.Ql_GetEvent) refers to ql_func.o(.bss) for .bss$2
    ql_func.o(i.Ql_GetEvent) refers to ql_func.o(.constdata) for .constdata$1
    ql_func.o(i.Ql_Sleep) refers to ql_func.o(.bss) for .bss$2
    ql_func.o(i.Ql_Sleep) refers to ql_func.o(.constdata) for .constdata$1
    ql_func.o(i.Ql_Reset) refers to ql_func.o(.bss) for .bss$2
    ql_func.o(i.Ql_Reset) refers to ql_func.o(.constdata) for .constdata$1
    ql_func.o(i.Ql_PowerDown) refers to ql_func.o(.bss) for .bss$2
    ql_func.o(i.Ql_PowerDown) refers to ql_func.o(.constdata) for .constdata$1
    ql_func.o(i.Ql_PowerOnAck) refers to ql_func.o(.bss) for .bss$2
    ql_func.o(i.Ql_PowerOnAck) refers to ql_func.o(.constdata) for .constdata$1
    ql_func.o(i.Ql_StartWatchdog) refers to ql_func.o(.bss) for .bss$2
    ql_func.o(i.Ql_StartWatchdog) refers to ql_func.o(.constdata) for .constdata$1
    ql_func.o(i.Ql_FeedWatchdog) refers to ql_func.o(.bss) for .bss$2
    ql_func.o(i.Ql_FeedWatchdog) refers to ql_func.o(.constdata) for .constdata$1
    ql_func.o(i.Ql_ReadModuleUID) refers to ql_func.o(.bss) for .bss$2
    ql_func.o(i.Ql_ReadModuleUID) refers to ql_func.o(.constdata) for .constdata$1
    ql_func.o(i.Ql_GetSDKVer) refers to ql_func.o(i.Ql_strlen) for Ql_strlen
    ql_func.o(i.Ql_GetSDKVer) refers to ql_func.o(i.Ql_strncpy) for Ql_strncpy
    ql_func.o(i.Ql_GetSDKVer) refers to ql_func.o(.constdata) for .constdata$1
    ql_func.o(i.Ql_GetPowerOnReason) refers to ql_func.o(.bss) for .bss$2
    ql_func.o(i.Ql_GetPowerOnReason) refers to ql_func.o(.constdata) for .constdata$1
    ql_func.o(i.Ql_GetMemory) refers to ql_func.o(.bss) for .bss$2
    ql_func.o(i.Ql_GetMemory) refers to ql_func.o(.constdata) for .constdata$1
    ql_func.o(i.Ql_FreeMemory) refers to ql_func.o(.bss) for .bss$2
    ql_func.o(i.Ql_FreeMemory) refers to ql_func.o(.constdata) for .constdata$1
    ql_func.o(i.Ql_memMaxCanAllocSize) refers to ql_func.o(.bss) for .bss$2
    ql_func.o(i.Ql_memMaxCanAllocSize) refers to ql_func.o(.constdata) for .constdata$1
    ql_func.o(i.Ql_memTotalLeftSize) refers to ql_func.o(.bss) for .bss$2
    ql_func.o(i.Ql_memTotalLeftSize) refers to ql_func.o(.constdata) for .constdata$1
    ql_func.o(i.Ql_FileGetFreeSize) refers to ql_func.o(.bss) for .bss$2
    ql_func.o(i.Ql_FileGetFreeSize) refers to ql_func.o(.constdata) for .constdata$1
    ql_func.o(i.Ql_FileOpen) refers to ql_func.o(.bss) for .bss$2
    ql_func.o(i.Ql_FileOpen) refers to ql_func.o(.constdata) for .constdata$1
    ql_func.o(i.Ql_FileOpenEx) refers to ql_func.o(.bss) for .bss$2
    ql_func.o(i.Ql_FileOpenEx) refers to ql_func.o(.constdata) for .constdata$1
    ql_func.o(i.Ql_FileRead) refers to ql_func.o(.bss) for .bss$2
    ql_func.o(i.Ql_FileRead) refers to ql_func.o(.constdata) for .constdata$1
    ql_func.o(i.Ql_FileWrite) refers to ql_func.o(.bss) for .bss$2
    ql_func.o(i.Ql_FileWrite) refers to ql_func.o(.constdata) for .constdata$1
    ql_func.o(i.Ql_FileSeek) refers to ql_func.o(.bss) for .bss$2
    ql_func.o(i.Ql_FileSeek) refers to ql_func.o(.constdata) for .constdata$1
    ql_func.o(i.Ql_FileGetFilePosition) refers to ql_func.o(.bss) for .bss$2
    ql_func.o(i.Ql_FileGetFilePosition) refers to ql_func.o(.constdata) for .constdata$1
    ql_func.o(i.Ql_FileTruncate) refers to ql_func.o(.bss) for .bss$2
    ql_func.o(i.Ql_FileTruncate) refers to ql_func.o(.constdata) for .constdata$1
    ql_func.o(i.Ql_FileFlush) refers to ql_func.o(.bss) for .bss$2
    ql_func.o(i.Ql_FileFlush) refers to ql_func.o(.constdata) for .constdata$1
    ql_func.o(i.Ql_FileClose) refers to ql_func.o(.bss) for .bss$2
    ql_func.o(i.Ql_FileClose) refers to ql_func.o(.constdata) for .constdata$1
    ql_func.o(i.Ql_FileGetSize) refers to ql_func.o(.bss) for .bss$2
    ql_func.o(i.Ql_FileGetSize) refers to ql_func.o(.constdata) for .constdata$1
    ql_func.o(i.Ql_FileDelete) refers to ql_func.o(.bss) for .bss$2
    ql_func.o(i.Ql_FileDelete) refers to ql_func.o(.constdata) for .constdata$1
    ql_func.o(i.Ql_FileCheck) refers to ql_func.o(.bss) for .bss$2
    ql_func.o(i.Ql_FileCheck) refers to ql_func.o(.constdata) for .constdata$1
    ql_func.o(i.Ql_FileRename) refers to ql_func.o(.bss) for .bss$2
    ql_func.o(i.Ql_FileRename) refers to ql_func.o(.constdata) for .constdata$1
    ql_func.o(i.Ql_FileCreateDir) refers to ql_func.o(.bss) for .bss$2
    ql_func.o(i.Ql_FileCreateDir) refers to ql_func.o(.constdata) for .constdata$1
    ql_func.o(i.Ql_FileRemoveDir) refers to ql_func.o(.bss) for .bss$2
    ql_func.o(i.Ql_FileRemoveDir) refers to ql_func.o(.constdata) for .constdata$1
    ql_func.o(i.Ql_FileCheckDir) refers to ql_func.o(.bss) for .bss$2
    ql_func.o(i.Ql_FileCheckDir) refers to ql_func.o(.constdata) for .constdata$1
    ql_func.o(i.Ql_FileFindFirst) refers to ql_func.o(.bss) for .bss$2
    ql_func.o(i.Ql_FileFindFirst) refers to ql_func.o(.constdata) for .constdata$1
    ql_func.o(i.Ql_FileFindNext) refers to ql_func.o(.bss) for .bss$2
    ql_func.o(i.Ql_FileFindNext) refers to ql_func.o(.constdata) for .constdata$1
    ql_func.o(i.Ql_FileFindClose) refers to ql_func.o(.bss) for .bss$2
    ql_func.o(i.Ql_FileFindClose) refers to ql_func.o(.constdata) for .constdata$1
    ql_func.o(i.Ql_FileXDelete) refers to ql_func.o(.bss) for .bss$2
    ql_func.o(i.Ql_FileXDelete) refers to ql_func.o(.constdata) for .constdata$1
    ql_func.o(i.Ql_FileXMove) refers to ql_func.o(.bss) for .bss$2
    ql_func.o(i.Ql_FileXMove) refers to ql_func.o(.constdata) for .constdata$1
    ql_func.o(i.Ql_FileSys_GetSpaceInfo) refers to ql_func.o(.bss) for .bss$2
    ql_func.o(i.Ql_FileSys_GetSpaceInfo) refers to ql_func.o(.constdata) for .constdata$1
    ql_func.o(i.Ql_WrtCodeRegion_Init) refers to ql_func.o(.bss) for .bss$2
    ql_func.o(i.Ql_WrtCodeRegion_Init) refers to ql_func.o(.constdata) for .constdata$1
    ql_func.o(i.Ql_WrtCodeRegion_Write) refers to ql_func.o(.bss) for .bss$2
    ql_func.o(i.Ql_WrtCodeRegion_Write) refers to ql_func.o(.constdata) for .constdata$1
    ql_func.o(i.Ql_WrtCodeRegion_Finish) refers to ql_func.o(.bss) for .bss$2
    ql_func.o(i.Ql_WrtCodeRegion_Finish) refers to ql_func.o(.constdata) for .constdata$1
    ql_func.o(i.Ql_pinSubscribe) refers to ql_func.o(.bss) for .bss$2
    ql_func.o(i.Ql_pinSubscribe) refers to ql_func.o(.constdata) for .constdata$1
    ql_func.o(i.Ql_pinUnSubscribe) refers to ql_func.o(.bss) for .bss$2
    ql_func.o(i.Ql_pinUnSubscribe) refers to ql_func.o(.constdata) for .constdata$1
    ql_func.o(i.Ql_pinQueryMode) refers to ql_func.o(.bss) for .bss$2
    ql_func.o(i.Ql_pinQueryMode) refers to ql_func.o(.constdata) for .constdata$1
    ql_func.o(i.Ql_pinRead) refers to ql_func.o(.bss) for .bss$2
    ql_func.o(i.Ql_pinRead) refers to ql_func.o(.constdata) for .constdata$1
    ql_func.o(i.Ql_pinWrite) refers to ql_func.o(.bss) for .bss$2
    ql_func.o(i.Ql_pinWrite) refers to ql_func.o(.constdata) for .constdata$1
    ql_func.o(i.Ql_pinControl) refers to ql_func.o(.bss) for .bss$2
    ql_func.o(i.Ql_pinControl) refers to ql_func.o(.constdata) for .constdata$1
    ql_func.o(i.Ql_eintRead) refers to ql_func.o(.bss) for .bss$2
    ql_func.o(i.Ql_eintRead) refers to ql_func.o(.constdata) for .constdata$1
    ql_func.o(i.Ql_eintMask) refers to ql_func.o(.bss) for .bss$2
    ql_func.o(i.Ql_eintMask) refers to ql_func.o(.constdata) for .constdata$1
    ql_func.o(i.Ql_eintSetPolarity) refers to ql_func.o(.bss) for .bss$2
    ql_func.o(i.Ql_eintSetPolarity) refers to ql_func.o(.constdata) for .constdata$1
    ql_func.o(i.Ql_ReadADC) refers to ql_func.o(.bss) for .bss$2
    ql_func.o(i.Ql_ReadADC) refers to ql_func.o(.constdata) for .constdata$1
    ql_func.o(i.Ql_busSubscribe) refers to ql_func.o(.bss) for .bss$2
    ql_func.o(i.Ql_busSubscribe) refers to ql_func.o(.constdata) for .constdata$1
    ql_func.o(i.Ql_busUnSubscribe) refers to ql_func.o(.bss) for .bss$2
    ql_func.o(i.Ql_busUnSubscribe) refers to ql_func.o(.constdata) for .constdata$1
    ql_func.o(i.Ql_busWrite) refers to ql_func.o(.bss) for .bss$2
    ql_func.o(i.Ql_busWrite) refers to ql_func.o(.constdata) for .constdata$1
    ql_func.o(i.Ql_busRead) refers to ql_func.o(.bss) for .bss$2
    ql_func.o(i.Ql_busRead) refers to ql_func.o(.constdata) for .constdata$1
    ql_func.o(i.Ql_busQuery) refers to ql_func.o(.bss) for .bss$2
    ql_func.o(i.Ql_busQuery) refers to ql_func.o(.constdata) for .constdata$1
    ql_func.o(i.Ql_PlayAudio) refers to ql_func.o(.bss) for .bss$2
    ql_func.o(i.Ql_PlayAudio) refers to ql_func.o(.constdata) for .constdata$1
    ql_func.o(i.Ql_StopAudio) refers to ql_func.o(.bss) for .bss$2
    ql_func.o(i.Ql_StopAudio) refers to ql_func.o(.constdata) for .constdata$1
    ql_func.o(i.Ql_StartPlayAudioFile) refers to ql_func.o(.bss) for .bss$2
    ql_func.o(i.Ql_StartPlayAudioFile) refers to ql_func.o(.constdata) for .constdata$1
    ql_func.o(i.Ql_PlayAudioFile_8k) refers to ql_func.o(.bss) for .bss$2
    ql_func.o(i.Ql_PlayAudioFile_8k) refers to ql_func.o(.constdata) for .constdata$1
    ql_func.o(i.Ql_StopAudioFile_8k) refers to ql_func.o(.bss) for .bss$2
    ql_func.o(i.Ql_StopAudioFile_8k) refers to ql_func.o(.constdata) for .constdata$1
    ql_func.o(i.Ql_StopPlayAudioFile) refers to ql_func.o(.bss) for .bss$2
    ql_func.o(i.Ql_StopPlayAudioFile) refers to ql_func.o(.constdata) for .constdata$1
    ql_func.o(i.Ql_StartPlayAudioStream) refers to ql_func.o(.bss) for .bss$2
    ql_func.o(i.Ql_StartPlayAudioStream) refers to ql_func.o(.constdata) for .constdata$1
    ql_func.o(i.Ql_StopPlayAudioStream) refers to ql_func.o(.bss) for .bss$2
    ql_func.o(i.Ql_StopPlayAudioStream) refers to ql_func.o(.constdata) for .constdata$1
    ql_func.o(i.Ql_VoiceCallChangePath) refers to ql_func.o(.bss) for .bss$2
    ql_func.o(i.Ql_VoiceCallChangePath) refers to ql_func.o(.constdata) for .constdata$1
    ql_func.o(i.Ql_VoiceCallGetCurrentPath) refers to ql_func.o(.bss) for .bss$2
    ql_func.o(i.Ql_VoiceCallGetCurrentPath) refers to ql_func.o(.constdata) for .constdata$1
    ql_func.o(i.Ql_SetVolume) refers to ql_func.o(.bss) for .bss$2
    ql_func.o(i.Ql_SetVolume) refers to ql_func.o(.constdata) for .constdata$1
    ql_func.o(i.Ql_SetVolume_Ex) refers to ql_func.o(.bss) for .bss$2
    ql_func.o(i.Ql_SetVolume_Ex) refers to ql_func.o(.constdata) for .constdata$1
    ql_func.o(i.Ql_GetVolume) refers to ql_func.o(.bss) for .bss$2
    ql_func.o(i.Ql_GetVolume) refers to ql_func.o(.constdata) for .constdata$1
    ql_func.o(i.Ql_SetMicGain) refers to ql_func.o(.bss) for .bss$2
    ql_func.o(i.Ql_SetMicGain) refers to ql_func.o(.constdata) for .constdata$1
    ql_func.o(i.Ql_GetMicGain) refers to ql_func.o(.bss) for .bss$2
    ql_func.o(i.Ql_GetMicGain) refers to ql_func.o(.constdata) for .constdata$1
    ql_func.o(i.Ql_SetSideToneGain) refers to ql_func.o(.bss) for .bss$2
    ql_func.o(i.Ql_SetSideToneGain) refers to ql_func.o(.constdata) for .constdata$1
    ql_func.o(i.Ql_GetSideToneGain) refers to ql_func.o(.bss) for .bss$2
    ql_func.o(i.Ql_GetSideToneGain) refers to ql_func.o(.constdata) for .constdata$1
    ql_func.o(i.Ql_CtrlEchoCancel) refers to ql_func.o(.bss) for .bss$2
    ql_func.o(i.Ql_CtrlEchoCancel) refers to ql_func.o(.constdata) for .constdata$1
    ql_func.o(i.Ql_VTS) refers to ql_func.o(.bss) for .bss$2
    ql_func.o(i.Ql_VTS) refers to ql_func.o(.constdata) for .constdata$1
    ql_func.o(i.Ql_StartTimer) refers to ql_func.o(.bss) for .bss$2
    ql_func.o(i.Ql_StartTimer) refers to ql_func.o(.constdata) for .constdata$1
    ql_func.o(i.Ql_StopTimer) refers to ql_func.o(.bss) for .bss$2
    ql_func.o(i.Ql_StopTimer) refers to ql_func.o(.constdata) for .constdata$1
    ql_func.o(i.Ql_GetLocalTime) refers to ql_func.o(.bss) for .bss$2
    ql_func.o(i.Ql_GetLocalTime) refers to ql_func.o(.constdata) for .constdata$1
    ql_func.o(i.Ql_SetLocalTime) refers to ql_func.o(.bss) for .bss$2
    ql_func.o(i.Ql_SetLocalTime) refers to ql_func.o(.constdata) for .constdata$1
    ql_func.o(i.Ql_GetRelativeTime) refers to ql_func.o(.bss) for .bss$2
    ql_func.o(i.Ql_GetRelativeTime) refers to ql_func.o(.constdata) for .constdata$1
    ql_func.o(i.Ql_GetRelativeTime_Counter) refers to ql_func.o(.bss) for .bss$2
    ql_func.o(i.Ql_GetRelativeTime_Counter) refers to ql_func.o(.constdata) for .constdata$1
    ql_func.o(i.Ql_SecondToTicks) refers to ql_func.o(.bss) for .bss$2
    ql_func.o(i.Ql_SecondToTicks) refers to ql_func.o(.constdata) for .constdata$1
    ql_func.o(i.Ql_MillisecondToTicks) refers to ql_func.o(.bss) for .bss$2
    ql_func.o(i.Ql_MillisecondToTicks) refers to ql_func.o(.constdata) for .constdata$1
    ql_func.o(i.Ql_Mktime) refers to ql_func.o(.bss) for .bss$2
    ql_func.o(i.Ql_Mktime) refers to ql_func.o(.constdata) for .constdata$1
    ql_func.o(i.Ql_StarLowLevelTimer) refers to ql_func.o(.bss) for .bss$2
    ql_func.o(i.Ql_StarLowLevelTimer) refers to ql_func.o(.constdata) for .constdata$1
    ql_func.o(i.Ql_StopLowLevelTimer) refers to ql_func.o(.bss) for .bss$2
    ql_func.o(i.Ql_StopLowLevelTimer) refers to ql_func.o(.constdata) for .constdata$1
    ql_func.o(i.Ql_OpenModemPort) refers to ql_func.o(.bss) for .bss$2
    ql_func.o(i.Ql_OpenModemPort) refers to ql_func.o(.constdata) for .constdata$1
    ql_func.o(i.Ql_SendToModem) refers to ql_func.o(.bss) for .bss$2
    ql_func.o(i.Ql_SendToModem) refers to ql_func.o(.constdata) for .constdata$1
    ql_func.o(i.Ql_SendToUart) refers to ql_func.o(.bss) for .bss$2
    ql_func.o(i.Ql_SendToUart) refers to ql_func.o(.constdata) for .constdata$1
    ql_func.o(i.Ql_SetPortRts) refers to ql_func.o(.bss) for .bss$2
    ql_func.o(i.Ql_SetPortRts) refers to ql_func.o(.constdata) for .constdata$1
    ql_func.o(i.Ql_SetUartBaudRate) refers to ql_func.o(.bss) for .bss$2
    ql_func.o(i.Ql_SetUartBaudRate) refers to ql_func.o(.constdata) for .constdata$1
    ql_func.o(i.Ql_SetPortOwner) refers to ql_func.o(.bss) for .bss$2
    ql_func.o(i.Ql_SetPortOwner) refers to ql_func.o(.constdata) for .constdata$1
    ql_func.o(i.Ql_SetUartDCBConfig) refers to ql_func.o(.bss) for .bss$2
    ql_func.o(i.Ql_SetUartDCBConfig) refers to ql_func.o(.constdata) for .constdata$1
    ql_func.o(i.Ql_SetUartFlowCtrl) refers to ql_func.o(.bss) for .bss$2
    ql_func.o(i.Ql_SetUartFlowCtrl) refers to ql_func.o(.constdata) for .constdata$1
    ql_func.o(i.Ql_UartGetBytesAvail) refers to ql_func.o(.bss) for .bss$2
    ql_func.o(i.Ql_UartGetBytesAvail) refers to ql_func.o(.constdata) for .constdata$1
    ql_func.o(i.Ql_UartGetTxRoomLeft) refers to ql_func.o(.bss) for .bss$2
    ql_func.o(i.Ql_UartGetTxRoomLeft) refers to ql_func.o(.constdata) for .constdata$1
    ql_func.o(i.Ql_UartGetTxRestBytes) refers to ql_func.o(.bss) for .bss$2
    ql_func.o(i.Ql_UartGetTxRestBytes) refers to ql_func.o(.constdata) for .constdata$1
    ql_func.o(i.Ql_UartConfigEscape) refers to ql_func.o(.bss) for .bss$2
    ql_func.o(i.Ql_UartConfigEscape) refers to ql_func.o(.constdata) for .constdata$1
    ql_func.o(i.Ql_UartClrTxBuffer) refers to ql_func.o(.bss) for .bss$2
    ql_func.o(i.Ql_UartClrTxBuffer) refers to ql_func.o(.constdata) for .constdata$1
    ql_func.o(i.Ql_UartClrRxBuffer) refers to ql_func.o(.bss) for .bss$2
    ql_func.o(i.Ql_UartClrRxBuffer) refers to ql_func.o(.constdata) for .constdata$1
    ql_func.o(i.Ql_UartSetGenericThreshold) refers to ql_func.o(.bss) for .bss$2
    ql_func.o(i.Ql_UartSetGenericThreshold) refers to ql_func.o(.constdata) for .constdata$1
    ql_func.o(i.Ql_UartGenericClearFEFlag) refers to ql_func.o(.bss) for .bss$2
    ql_func.o(i.Ql_UartGenericClearFEFlag) refers to ql_func.o(.constdata) for .constdata$1
    ql_func.o(i.Ql_UartSetVfifoThreshold) refers to ql_func.o(.bss) for .bss$2
    ql_func.o(i.Ql_UartSetVfifoThreshold) refers to ql_func.o(.constdata) for .constdata$1
    ql_func.o(i.Ql_UartGetVfifoThresholdInfo) refers to ql_func.o(.bss) for .bss$2
    ql_func.o(i.Ql_UartGetVfifoThresholdInfo) refers to ql_func.o(.constdata) for .constdata$1
    ql_func.o(i.Ql_UartMaxGetVfifoThresholdInfo) refers to ql_func.o(.bss) for .bss$2
    ql_func.o(i.Ql_UartMaxGetVfifoThresholdInfo) refers to ql_func.o(.constdata) for .constdata$1
    ql_func.o(i.Ql_UartStartVfifoMonitorRxTimeout) refers to ql_func.o(.bss) for .bss$2
    ql_func.o(i.Ql_UartStartVfifoMonitorRxTimeout) refers to ql_func.o(.constdata) for .constdata$1
    ql_func.o(i.Ql_UartStopVfifoMonitorRxTimeout) refers to ql_func.o(.bss) for .bss$2
    ql_func.o(i.Ql_UartStopVfifoMonitorRxTimeout) refers to ql_func.o(.constdata) for .constdata$1
    ql_func.o(i.Ql_UartDirectnessReadData) refers to ql_func.o(.bss) for .bss$2
    ql_func.o(i.Ql_UartDirectnessReadData) refers to ql_func.o(.constdata) for .constdata$1
    ql_func.o(i.Ql_UartQueryDataMode) refers to ql_func.o(.bss) for .bss$2
    ql_func.o(i.Ql_UartQueryDataMode) refers to ql_func.o(.constdata) for .constdata$1
    ql_func.o(i.Ql_UartForceSendEscape) refers to ql_func.o(.bss) for .bss$2
    ql_func.o(i.Ql_UartForceSendEscape) refers to ql_func.o(.constdata) for .constdata$1
    ql_func.o(i.Ql_GprsAPNSet) refers to ql_func.o(.bss) for .bss$2
    ql_func.o(i.Ql_GprsAPNSet) refers to ql_func.o(.constdata) for .constdata$1
    ql_func.o(i.Ql_GprsAPNGet) refers to ql_func.o(.bss) for .bss$2
    ql_func.o(i.Ql_GprsAPNGet) refers to ql_func.o(.constdata) for .constdata$1
    ql_func.o(i.Ql_GprsNetworkInitialize) refers to ql_func.o(.bss) for .bss$2
    ql_func.o(i.Ql_GprsNetworkInitialize) refers to ql_func.o(.constdata) for .constdata$1
    ql_func.o(i.Ql_GprsNetworkUnInitialize) refers to ql_func.o(.bss) for .bss$2
    ql_func.o(i.Ql_GprsNetworkUnInitialize) refers to ql_func.o(.constdata) for .constdata$1
    ql_func.o(i.Ql_GprsNetworkActive) refers to ql_func.o(.bss) for .bss$2
    ql_func.o(i.Ql_GprsNetworkActive) refers to ql_func.o(.constdata) for .constdata$1
    ql_func.o(i.Ql_GprsNetworkDeactive) refers to ql_func.o(.bss) for .bss$2
    ql_func.o(i.Ql_GprsNetworkDeactive) refers to ql_func.o(.constdata) for .constdata$1
    ql_func.o(i.Ql_GprsNetworkGetState) refers to ql_func.o(.bss) for .bss$2
    ql_func.o(i.Ql_GprsNetworkGetState) refers to ql_func.o(.constdata) for .constdata$1
    ql_func.o(i.Ql_SocketCreate) refers to ql_func.o(.bss) for .bss$2
    ql_func.o(i.Ql_SocketCreate) refers to ql_func.o(.constdata) for .constdata$1
    ql_func.o(i.Ql_SocketClose) refers to ql_func.o(.bss) for .bss$2
    ql_func.o(i.Ql_SocketClose) refers to ql_func.o(.constdata) for .constdata$1
    ql_func.o(i.Ql_SocketConnect) refers to ql_func.o(.bss) for .bss$2
    ql_func.o(i.Ql_SocketConnect) refers to ql_func.o(.constdata) for .constdata$1
    ql_func.o(i.Ql_SocketSend) refers to ql_func.o(.bss) for .bss$2
    ql_func.o(i.Ql_SocketSend) refers to ql_func.o(.constdata) for .constdata$1
    ql_func.o(i.Ql_SocketRecv) refers to ql_func.o(.bss) for .bss$2
    ql_func.o(i.Ql_SocketRecv) refers to ql_func.o(.constdata) for .constdata$1
    ql_func.o(i.Ql_SocketTcpAckNumber) refers to ql_func.o(.bss) for .bss$2
    ql_func.o(i.Ql_SocketTcpAckNumber) refers to ql_func.o(.constdata) for .constdata$1
    ql_func.o(i.Ql_SocketSendTo) refers to ql_func.o(.bss) for .bss$2
    ql_func.o(i.Ql_SocketSendTo) refers to ql_func.o(.constdata) for .constdata$1
    ql_func.o(i.Ql_SocketRecvFrom) refers to ql_func.o(.bss) for .bss$2
    ql_func.o(i.Ql_SocketRecvFrom) refers to ql_func.o(.constdata) for .constdata$1
    ql_func.o(i.Ql_SocketBind) refers to ql_func.o(.bss) for .bss$2
    ql_func.o(i.Ql_SocketBind) refers to ql_func.o(.constdata) for .constdata$1
    ql_func.o(i.Ql_SocketListen) refers to ql_func.o(.bss) for .bss$2
    ql_func.o(i.Ql_SocketListen) refers to ql_func.o(.constdata) for .constdata$1
    ql_func.o(i.Ql_SocketAccept) refers to ql_func.o(.bss) for .bss$2
    ql_func.o(i.Ql_SocketAccept) refers to ql_func.o(.constdata) for .constdata$1
    ql_func.o(i.Ql_GetHostIpbyName) refers to ql_func.o(.bss) for .bss$2
    ql_func.o(i.Ql_GetHostIpbyName) refers to ql_func.o(.constdata) for .constdata$1
    ql_func.o(i.Ql_GetLocalIpAddress) refers to ql_func.o(.bss) for .bss$2
    ql_func.o(i.Ql_GetLocalIpAddress) refers to ql_func.o(.constdata) for .constdata$1
    ql_func.o(i.Ql_GetDnsServerAddress) refers to ql_func.o(.bss) for .bss$2
    ql_func.o(i.Ql_GetDnsServerAddress) refers to ql_func.o(.constdata) for .constdata$1
    ql_func.o(i.Ql_SetDnsServerAddress) refers to ql_func.o(.bss) for .bss$2
    ql_func.o(i.Ql_SetDnsServerAddress) refers to ql_func.o(.constdata) for .constdata$1
    ql_func.o(i.Ql_SocketCheckIp) refers to ql_func.o(.bss) for .bss$2
    ql_func.o(i.Ql_SocketCheckIp) refers to ql_func.o(.constdata) for .constdata$1
    ql_func.o(i.Ql_SocketSetSendBufferSize) refers to ql_func.o(.bss) for .bss$2
    ql_func.o(i.Ql_SocketSetSendBufferSize) refers to ql_func.o(.constdata) for .constdata$1
    ql_func.o(i.Ql_SocketSetRecvBufferSize) refers to ql_func.o(.bss) for .bss$2
    ql_func.o(i.Ql_SocketSetRecvBufferSize) refers to ql_func.o(.constdata) for .constdata$1
    ql_func.o(i.Ql_GetDeviceCurrentRunState) refers to ql_func.o(.bss) for .bss$2
    ql_func.o(i.Ql_GetDeviceCurrentRunState) refers to ql_func.o(.constdata) for .constdata$1
    ql_func.o(i.Ql_SocketHtonl) refers to ql_func.o(.bss) for .bss$2
    ql_func.o(i.Ql_SocketHtonl) refers to ql_func.o(.constdata) for .constdata$1
    ql_func.o(i.Ql_SocketHtons) refers to ql_func.o(.bss) for .bss$2
    ql_func.o(i.Ql_SocketHtons) refers to ql_func.o(.constdata) for .constdata$1
    ql_func.o(i.Ql_SMSInitialize) refers to ql_func.o(.bss) for .bss$2
    ql_func.o(i.Ql_SMSInitialize) refers to ql_func.o(.constdata) for .constdata$1
    ql_func.o(i.Ql_SMSUnInitialize) refers to ql_func.o(.bss) for .bss$2
    ql_func.o(i.Ql_SMSUnInitialize) refers to ql_func.o(.constdata) for .constdata$1
    ql_func.o(i.Ql_SendTextSMS) refers to ql_func.o(.bss) for .bss$2
    ql_func.o(i.Ql_SendTextSMS) refers to ql_func.o(.constdata) for .constdata$1
    ql_func.o(i.Ql_SendPDUSMS) refers to ql_func.o(.bss) for .bss$2
    ql_func.o(i.Ql_SendPDUSMS) refers to ql_func.o(.constdata) for .constdata$1
    ql_func.o(i.Ql_ReadSMS) refers to ql_func.o(.bss) for .bss$2
    ql_func.o(i.Ql_ReadSMS) refers to ql_func.o(.constdata) for .constdata$1
    ql_func.o(i.Ql_SetNewSMSCallBack) refers to ql_func.o(.bss) for .bss$2
    ql_func.o(i.Ql_SetNewSMSCallBack) refers to ql_func.o(.constdata) for .constdata$1
    ql_func.o(i.Ql_SetSMSFormat) refers to ql_func.o(.bss) for .bss$2
    ql_func.o(i.Ql_SetSMSFormat) refers to ql_func.o(.constdata) for .constdata$1
    ql_func.o(i.Ql_GetSMSFormat) refers to ql_func.o(.bss) for .bss$2
    ql_func.o(i.Ql_GetSMSFormat) refers to ql_func.o(.constdata) for .constdata$1
    ql_func.o(i.Ql_SetSMSStorage) refers to ql_func.o(.bss) for .bss$2
    ql_func.o(i.Ql_SetSMSStorage) refers to ql_func.o(.constdata) for .constdata$1
    ql_func.o(i.Ql_DeleteSMS) refers to ql_func.o(.bss) for .bss$2
    ql_func.o(i.Ql_DeleteSMS) refers to ql_func.o(.constdata) for .constdata$1
    ql_func.o(i.Ql_ReadSMSList) refers to ql_func.o(.bss) for .bss$2
    ql_func.o(i.Ql_ReadSMSList) refers to ql_func.o(.constdata) for .constdata$1
    ql_func.o(i.Ql_SetInfoCentreNum) refers to ql_func.o(.bss) for .bss$2
    ql_func.o(i.Ql_SetInfoCentreNum) refers to ql_func.o(.constdata) for .constdata$1
    ql_func.o(i.Ql_GetInfoCentreNum) refers to ql_func.o(.bss) for .bss$2
    ql_func.o(i.Ql_GetInfoCentreNum) refers to ql_func.o(.constdata) for .constdata$1
    ql_func.o(i.Ql_Call_Initialize) refers to ql_func.o(.bss) for .bss$2
    ql_func.o(i.Ql_Call_Initialize) refers to ql_func.o(.constdata) for .constdata$1
    ql_func.o(i.Ql_GetCallCntByType) refers to ql_func.o(.bss) for .bss$2
    ql_func.o(i.Ql_GetCallCntByType) refers to ql_func.o(.constdata) for .constdata$1
    ql_func.o(i.Ql_Call_Dial) refers to ql_func.o(.bss) for .bss$2
    ql_func.o(i.Ql_Call_Dial) refers to ql_func.o(.constdata) for .constdata$1
    ql_func.o(i.Ql_Call_Answer) refers to ql_func.o(.bss) for .bss$2
    ql_func.o(i.Ql_Call_Answer) refers to ql_func.o(.constdata) for .constdata$1
    ql_func.o(i.Ql_Call_Hangup) refers to ql_func.o(.bss) for .bss$2
    ql_func.o(i.Ql_Call_Hangup) refers to ql_func.o(.constdata) for .constdata$1
    ql_func.o(i.Ql_GSM_GetIMEI) refers to ql_func.o(.bss) for .bss$2
    ql_func.o(i.Ql_GSM_GetIMEI) refers to ql_func.o(.constdata) for .constdata$1
    ql_func.o(i.Ql_SIM_GetIMSI) refers to ql_func.o(.bss) for .bss$2
    ql_func.o(i.Ql_SIM_GetIMSI) refers to ql_func.o(.constdata) for .constdata$1
    ql_func.o(i.Ql_GetCoreVer) refers to ql_func.o(.bss) for .bss$2
    ql_func.o(i.Ql_GetCoreVer) refers to ql_func.o(.constdata) for .constdata$1
    ql_func.o(i.Ql_IsSIMInserted) refers to ql_func.o(.bss) for .bss$2
    ql_func.o(i.Ql_IsSIMInserted) refers to ql_func.o(.constdata) for .constdata$1
    ql_func.o(i.Ql_GetOperator) refers to ql_func.o(.bss) for .bss$2
    ql_func.o(i.Ql_GetOperator) refers to ql_func.o(.constdata) for .constdata$1
    ql_func.o(i.Ql_RetrieveNodeBInfo) refers to ql_func.o(.bss) for .bss$2
    ql_func.o(i.Ql_RetrieveNodeBInfo) refers to ql_func.o(.constdata) for .constdata$1
    ql_func.o(i.Ql_osSendEvent) refers to ql_func.o(.bss) for .bss$2
    ql_func.o(i.Ql_osSendEvent) refers to ql_func.o(.constdata) for .constdata$1
    ql_func.o(i.Ql_osCreateMutex) refers to ql_func.o(.bss) for .bss$2
    ql_func.o(i.Ql_osCreateMutex) refers to ql_func.o(.constdata) for .constdata$1
    ql_func.o(i.Ql_osTakeMutex) refers to ql_func.o(.bss) for .bss$2
    ql_func.o(i.Ql_osTakeMutex) refers to ql_func.o(.constdata) for .constdata$1
    ql_func.o(i.Ql_osGiveMutex) refers to ql_func.o(.bss) for .bss$2
    ql_func.o(i.Ql_osGiveMutex) refers to ql_func.o(.constdata) for .constdata$1
    ql_func.o(i.Ql_osCreateSemaphore) refers to ql_func.o(.bss) for .bss$2
    ql_func.o(i.Ql_osCreateSemaphore) refers to ql_func.o(.constdata) for .constdata$1
    ql_func.o(i.Ql_osTakeSemaphore) refers to ql_func.o(.bss) for .bss$2
    ql_func.o(i.Ql_osTakeSemaphore) refers to ql_func.o(.constdata) for .constdata$1
    ql_func.o(i.Ql_osGiveSemaphore) refers to ql_func.o(.bss) for .bss$2
    ql_func.o(i.Ql_osGiveSemaphore) refers to ql_func.o(.constdata) for .constdata$1
    ql_func.o(i.Ql_SetLastErrorCode) refers to ql_func.o(.bss) for .bss$2
    ql_func.o(i.Ql_SetLastErrorCode) refers to ql_func.o(.constdata) for .constdata$1
    ql_func.o(i.Ql_GetLastErrorCode) refers to ql_func.o(.bss) for .bss$2
    ql_func.o(i.Ql_GetLastErrorCode) refers to ql_func.o(.constdata) for .constdata$1
    ql_func.o(i.Ql_osGetCurrentTaskPriority) refers to ql_func.o(.bss) for .bss$2
    ql_func.o(i.Ql_osGetCurrentTaskPriority) refers to ql_func.o(.constdata) for .constdata$1
    ql_func.o(i.Ql_osGetCurrenTaskRemainStackSize) refers to ql_func.o(.bss) for .bss$2
    ql_func.o(i.Ql_osGetCurrenTaskRemainStackSize) refers to ql_func.o(.constdata) for .constdata$1
    ql_func.o(i.Ql_osChangeTaskPriority) refers to ql_func.o(.bss) for .bss$2
    ql_func.o(i.Ql_osChangeTaskPriority) refers to ql_func.o(.constdata) for .constdata$1
    ql_func.o(i.Ql_Fota_Core_Init) refers to ql_func.o(.bss) for .bss$2
    ql_func.o(i.Ql_Fota_Core_Init) refers to ql_func.o(.constdata) for .constdata$1
    ql_func.o(i.Ql_Fota_Core_Write_Data) refers to ql_func.o(.bss) for .bss$2
    ql_func.o(i.Ql_Fota_Core_Write_Data) refers to ql_func.o(.constdata) for .constdata$1
    ql_func.o(i.Ql_Fota_Core_Finish) refers to ql_func.o(.bss) for .bss$2
    ql_func.o(i.Ql_Fota_Core_Finish) refers to ql_func.o(.constdata) for .constdata$1
    ql_func.o(i.Ql_Fota_App_Init) refers to ql_func.o(.bss) for .bss$2
    ql_func.o(i.Ql_Fota_App_Init) refers to ql_func.o(.constdata) for .constdata$1
    ql_func.o(i.Ql_Fota_App_Write_Data) refers to ql_func.o(.bss) for .bss$2
    ql_func.o(i.Ql_Fota_App_Write_Data) refers to ql_func.o(.constdata) for .constdata$1
    ql_func.o(i.Ql_Fota_App_Finish) refers to ql_func.o(.bss) for .bss$2
    ql_func.o(i.Ql_Fota_App_Finish) refers to ql_func.o(.constdata) for .constdata$1
    ql_func.o(i.Ql_Fota_Update) refers to ql_func.o(.bss) for .bss$2
    ql_func.o(i.Ql_Fota_Update) refers to ql_func.o(.constdata) for .constdata$1
    ql_func.o(i.Ql_TTS_Initialize) refers to ql_func.o(.bss) for .bss$2
    ql_func.o(i.Ql_TTS_Initialize) refers to ql_func.o(.constdata) for .constdata$1
    ql_func.o(i.Ql_TTS_Play) refers to ql_func.o(.bss) for .bss$2
    ql_func.o(i.Ql_TTS_Play) refers to ql_func.o(.constdata) for .constdata$1
    ql_func.o(i.Ql_TTS_Stop) refers to ql_func.o(.bss) for .bss$2
    ql_func.o(i.Ql_TTS_Stop) refers to ql_func.o(.constdata) for .constdata$1
    ql_func.o(i.Ql_TTS_Query) refers to ql_func.o(.bss) for .bss$2
    ql_func.o(i.Ql_TTS_Query) refers to ql_func.o(.constdata) for .constdata$1
    ql_func.o(i.Ql_ConvertCodec) refers to ql_func.o(.bss) for .bss$2
    ql_func.o(i.Ql_ConvertCodec) refers to ql_func.o(.constdata) for .constdata$1
    ql_main.o(i.ql_InitVFunc) refers to ql_main.o(.bss) for .bss$2
    ql_main.o(i.ql_InitVFunc) refers to ql_func.o(.bss) for m_itoa
    ql_main.o(i.ql_InitVFunc) refers to ql_func.o(.bss) for Ql_sprintf
    ql_main.o(i.ql_InitVFunc) refers to ql_func.o(.bss) for m_StopWatchdog
    ql_main.o(i.ql_main) refers to rt_memclr_w.o(.text) for __rt_memclr_w
    ql_main.o(i.ql_main) refers to lib_init.o(.text) for __rt_lib_init
    ql_main.o(i.ql_main) refers to ql_main.o(i.ql_InitVFunc) for ql_InitVFunc
    ql_main.o(i.ql_main) refers to ql_func.o(i.Ql_GetSDKVer) for Ql_GetSDKVer
    ql_main.o(i.ql_main) refers to example_tcpip.o(i.ql_entry) for ql_entry
    ql_main.o(i.ql_main) refers to ql_main.o(.bss) for .bss$2
    ql_main.o(i.ql_main) refers to ql_func.o(.bss) for Ql_DebugTrace
    ql_main.o(i.ql_main) refers to ql_main.o(.constdata) for .constdata$1
    ql_main.o(GABADISP) refers to ql_main.o(i.ql_main) for ql_main
    ql_main.o(GABADISP) refers to image2dlms.o(init) for funcRegionInit
    ql_main.o(GABADISP) refers to ql_customer_config.o(.constdata) for qlOpenCPUHeapMemSize
    ql_main.o(GABADISP) refers to ql_customer_config.o(.bss) for qlOpenCPUHeapMem
    ql_main.o(GABADISP) refers to ql_customer_config.o(.constdata) for qlMainTaskStackSize
    ql_main.o(GABADISP) refers to ql_customer_config.o(.constdata) for qlMainTaskPriority
    ql_main.o(GABADISP) refers to ql_customer_config.o(.constdata) for qlMainTaskExtqsize
    ql_main.o(GABADISP) refers to ql_customer_gpio.o(.constdata) for Customer_user_qlconfig
    ql_main.o(GABADISP) refers to ql_customer_gpio.o(.constdata) for Customer_QlPinConfigTable
    ql_main.o(GABADISP) refers to ql_customer_config.o(.bss) for SubMutitaskArray
    example_tcpip.o(i.CHECKFLAG) refers to example_tcpip.o(.bss) for .bss$2
    example_tcpip.o(i.SETFLAG) refers to example_tcpip.o(.bss) for .bss$2
    example_tcpip.o(i.RESETFLAG) refers to example_tcpip.o(.bss) for .bss$2
    example_tcpip.o(i.SendGPS_Setting) refers to ql_func.o(i.Ql_SendToUart) for Ql_SendToUart
    example_tcpip.o(i.SendGPS_Setting) refers to example_tcpip.o(.bss) for .bss$2
    example_tcpip.o(i.OpenSetting_File) refers to ql_func.o(i.Ql_strstr) for Ql_strstr
    example_tcpip.o(i.OpenSetting_File) refers to ql_func.o(i.Ql_FileOpen) for Ql_FileOpen
    example_tcpip.o(i.OpenSetting_File) refers to ql_func.o(i.Ql_strlen) for Ql_strlen
    example_tcpip.o(i.OpenSetting_File) refers to ql_func.o(i.Ql_SendToUart) for Ql_SendToUart
    example_tcpip.o(i.OpenSetting_File) refers to example_tcpip.o(.constdata) for .constdata$1
    example_tcpip.o(i.OpenSetting_File) refers to example_tcpip.o(.data) for .data$0
    example_tcpip.o(i.OpenSetting_File) refers to example_tcpip.o(.bss) for .bss$2
    example_tcpip.o(i.OpenSetting_File) refers to ql_func.o(.bss) for Ql_sprintf
    example_tcpip.o(i.save_new_Update_timer_settings) refers to example_tcpip.o(i.OpenSetting_File) for OpenSetting_File
    example_tcpip.o(i.save_new_Update_timer_settings) refers to ql_func.o(i.Ql_FileSeek) for Ql_FileSeek
    example_tcpip.o(i.save_new_Update_timer_settings) refers to ql_func.o(i.Ql_FileWrite) for Ql_FileWrite
    example_tcpip.o(i.save_new_Update_timer_settings) refers to ql_func.o(i.Ql_strlen) for Ql_strlen
    example_tcpip.o(i.save_new_Update_timer_settings) refers to ql_func.o(i.Ql_SendToUart) for Ql_SendToUart
    example_tcpip.o(i.save_new_Update_timer_settings) refers to ql_func.o(i.Ql_memset) for Ql_memset
    example_tcpip.o(i.save_new_Update_timer_settings) refers to ql_func.o(i.Ql_FileRead) for Ql_FileRead
    example_tcpip.o(i.save_new_Update_timer_settings) refers to rtsdiv10.o(.text) for __rt_sdiv10
    example_tcpip.o(i.save_new_Update_timer_settings) refers to ql_func.o(i.Ql_FileClose) for Ql_FileClose
    example_tcpip.o(i.save_new_Update_timer_settings) refers to example_tcpip.o(.data) for timer_update_rate
    example_tcpip.o(i.save_new_Update_timer_settings) refers to example_tcpip.o(.constdata) for .constdata$1
    example_tcpip.o(i.save_new_Update_timer_settings) refers to example_tcpip.o(.bss) for .bss$2
    example_tcpip.o(i.save_new_Update_timer_settings) refers to ql_func.o(.bss) for Ql_sprintf
    example_tcpip.o(i.SendAtCmd) refers to ql_func.o(i.Ql_memset) for Ql_memset
    example_tcpip.o(i.SendAtCmd) refers to ql_func.o(i.Ql_strlen) for Ql_strlen
    example_tcpip.o(i.SendAtCmd) refers to ql_func.o(i.Ql_SendToModem) for Ql_SendToModem
    example_tcpip.o(i.SendAtCmd) refers to example_tcpip.o(.bss) for .bss$2
    example_tcpip.o(i.SendAtCmd) refers to ql_func.o(.bss) for Ql_sprintf
    example_tcpip.o(i.SendAtCmd) refers to example_tcpip.o(.constdata) for .constdata$1
    example_tcpip.o(i.SendAtCmd) refers to example_tcpip.o(.data) for FTP_USER
    example_tcpip.o(i.SendAtCmd) refers to ql_func.o(.bss) for Ql_DebugTrace
    example_tcpip.o(i.save_new_OwnNumber_settings) refers to example_tcpip.o(i.OpenSetting_File) for OpenSetting_File
    example_tcpip.o(i.save_new_OwnNumber_settings) refers to ql_func.o(i.Ql_FileSeek) for Ql_FileSeek
    example_tcpip.o(i.save_new_OwnNumber_settings) refers to ql_func.o(i.Ql_FileWrite) for Ql_FileWrite
    example_tcpip.o(i.save_new_OwnNumber_settings) refers to ql_func.o(i.Ql_strlen) for Ql_strlen
    example_tcpip.o(i.save_new_OwnNumber_settings) refers to ql_func.o(i.Ql_SendToUart) for Ql_SendToUart
    example_tcpip.o(i.save_new_OwnNumber_settings) refers to ql_func.o(i.Ql_memset) for Ql_memset
    example_tcpip.o(i.save_new_OwnNumber_settings) refers to ql_func.o(i.Ql_FileRead) for Ql_FileRead
    example_tcpip.o(i.save_new_OwnNumber_settings) refers to ql_func.o(i.Ql_FileClose) for Ql_FileClose
    example_tcpip.o(i.save_new_OwnNumber_settings) refers to example_tcpip.o(.data) for owen_number
    example_tcpip.o(i.save_new_OwnNumber_settings) refers to example_tcpip.o(.constdata) for .constdata$1
    example_tcpip.o(i.save_new_OwnNumber_settings) refers to example_tcpip.o(.bss) for .bss$2
    example_tcpip.o(i.save_new_OwnNumber_settings) refers to ql_func.o(.bss) for Ql_sprintf
    example_tcpip.o(i.save_new_Apn_settings) refers to example_tcpip.o(i.OpenSetting_File) for OpenSetting_File
    example_tcpip.o(i.save_new_Apn_settings) refers to ql_func.o(i.Ql_FileSeek) for Ql_FileSeek
    example_tcpip.o(i.save_new_Apn_settings) refers to ql_func.o(i.Ql_strlen) for Ql_strlen
    example_tcpip.o(i.save_new_Apn_settings) refers to ql_func.o(i.Ql_FileWrite) for Ql_FileWrite
    example_tcpip.o(i.save_new_Apn_settings) refers to ql_func.o(i.Ql_SendToUart) for Ql_SendToUart
    example_tcpip.o(i.save_new_Apn_settings) refers to ql_func.o(i.Ql_memset) for Ql_memset
    example_tcpip.o(i.save_new_Apn_settings) refers to ql_func.o(i.Ql_FileRead) for Ql_FileRead
    example_tcpip.o(i.save_new_Apn_settings) refers to ql_func.o(i.Ql_FileClose) for Ql_FileClose
    example_tcpip.o(i.save_new_Apn_settings) refers to ql_func.o(i.Ql_SecondToTicks) for Ql_SecondToTicks
    example_tcpip.o(i.save_new_Apn_settings) refers to ql_func.o(i.Ql_StartTimer) for Ql_StartTimer
    example_tcpip.o(i.save_new_Apn_settings) refers to example_tcpip.o(.bss) for .bss$2
    example_tcpip.o(i.save_new_Apn_settings) refers to example_tcpip.o(.data) for .data$0
    example_tcpip.o(i.save_new_Apn_settings) refers to example_tcpip.o(.constdata) for .constdata$1
    example_tcpip.o(i.save_new_Apn_settings) refers to ql_func.o(.bss) for Ql_sprintf
    example_tcpip.o(i.save_new_ip_settings) refers to example_tcpip.o(i.OpenSetting_File) for OpenSetting_File
    example_tcpip.o(i.save_new_ip_settings) refers to ql_func.o(i.Ql_memset) for Ql_memset
    example_tcpip.o(i.save_new_ip_settings) refers to ql_func.o(i.Ql_FileWrite) for Ql_FileWrite
    example_tcpip.o(i.save_new_ip_settings) refers to ql_func.o(i.Ql_strlen) for Ql_strlen
    example_tcpip.o(i.save_new_ip_settings) refers to ql_func.o(i.Ql_SendToUart) for Ql_SendToUart
    example_tcpip.o(i.save_new_ip_settings) refers to ql_func.o(i.Ql_FileSeek) for Ql_FileSeek
    example_tcpip.o(i.save_new_ip_settings) refers to ql_func.o(i.Ql_FileRead) for Ql_FileRead
    example_tcpip.o(i.save_new_ip_settings) refers to rtsdiv10.o(.text) for __rt_sdiv10
    example_tcpip.o(i.save_new_ip_settings) refers to ql_func.o(i.Ql_FileClose) for Ql_FileClose
    example_tcpip.o(i.save_new_ip_settings) refers to ql_func.o(i.Ql_SecondToTicks) for Ql_SecondToTicks
    example_tcpip.o(i.save_new_ip_settings) refers to ql_func.o(i.Ql_StartTimer) for Ql_StartTimer
    example_tcpip.o(i.save_new_ip_settings) refers to example_tcpip.o(.data) for port1_buffer
    example_tcpip.o(i.save_new_ip_settings) refers to example_tcpip.o(.bss) for .bss$2
    example_tcpip.o(i.save_new_ip_settings) refers to example_tcpip.o(.constdata) for .constdata$1
    example_tcpip.o(i.save_new_ip_settings) refers to ql_func.o(.bss) for Ql_sprintf
    example_tcpip.o(i.Uart1_setting_received) refers to ql_func.o(i.Ql_pinWrite) for Ql_pinWrite
    example_tcpip.o(i.Uart1_setting_received) refers to ql_func.o(i.Ql_strlen) for Ql_strlen
    example_tcpip.o(i.Uart1_setting_received) refers to ql_func.o(i.Ql_SendToUart) for Ql_SendToUart
    example_tcpip.o(i.Uart1_setting_received) refers to example_tcpip.o(i.save_new_ip_settings) for save_new_ip_settings
    example_tcpip.o(i.Uart1_setting_received) refers to example_tcpip.o(i.save_new_Apn_settings) for save_new_Apn_settings
    example_tcpip.o(i.Uart1_setting_received) refers to example_tcpip.o(i.save_new_OwnNumber_settings) for save_new_OwnNumber_settings
    example_tcpip.o(i.Uart1_setting_received) refers to ql_func.o(i.Ql_StopTimer) for Ql_StopTimer
    example_tcpip.o(i.Uart1_setting_received) refers to ql_func.o(i.Ql_SocketClose) for Ql_SocketClose
    example_tcpip.o(i.Uart1_setting_received) refers to ql_func.o(i.Ql_GprsNetworkDeactive) for Ql_GprsNetworkDeactive
    example_tcpip.o(i.Uart1_setting_received) refers to example_tcpip.o(i.SendAtCmd) for SendAtCmd
    example_tcpip.o(i.Uart1_setting_received) refers to example_tcpip.o(i.save_new_Update_timer_settings) for save_new_Update_timer_settings
    example_tcpip.o(i.Uart1_setting_received) refers to ql_func.o(i.Ql_pinControl) for Ql_pinControl
    example_tcpip.o(i.Uart1_setting_received) refers to example_tcpip.o(.bss) for .bss$2
    example_tcpip.o(i.Uart1_setting_received) refers to example_tcpip.o(.constdata) for .constdata$1
    example_tcpip.o(i.Uart1_setting_received) refers to ql_func.o(.bss) for Ql_sprintf
    example_tcpip.o(i.Uart1_setting_received) refers to example_tcpip.o(.data) for address1_buffer
    example_tcpip.o(i.SendAtCmd_Message_Read) refers to ql_func.o(i.Ql_memset) for Ql_memset
    example_tcpip.o(i.SendAtCmd_Message_Read) refers to ql_func.o(i.Ql_strlen) for Ql_strlen
    example_tcpip.o(i.SendAtCmd_Message_Read) refers to ql_func.o(i.Ql_SendToModem) for Ql_SendToModem
    example_tcpip.o(i.SendAtCmd_Message_Read) refers to example_tcpip.o(.bss) for .bss$2
    example_tcpip.o(i.SendAtCmd_Message_Read) refers to ql_func.o(.bss) for Ql_sprintf
    example_tcpip.o(i.SendAtCmd_Message_Read) refers to example_tcpip.o(.constdata) for .constdata$1
    example_tcpip.o(i.SendAtCmd_Message_Read) refers to ql_func.o(.bss) for Ql_DebugTrace
    example_tcpip.o(i.GPIOPin_Config) refers to ql_func.o(i.Ql_memset) for Ql_memset
    example_tcpip.o(i.GPIOPin_Config) refers to ql_func.o(i.Ql_pinSubscribe) for Ql_pinSubscribe
    example_tcpip.o(i.GPIOPin_Config) refers to ql_func.o(i.Ql_strlen) for Ql_strlen
    example_tcpip.o(i.GPIOPin_Config) refers to ql_func.o(i.Ql_SendToUart) for Ql_SendToUart
    example_tcpip.o(i.GPIOPin_Config) refers to ql_func.o(i.Ql_pinWrite) for Ql_pinWrite
    example_tcpip.o(i.GPIOPin_Config) refers to example_tcpip.o(.bss) for .bss$2
    example_tcpip.o(i.GPIOPin_Config) refers to example_tcpip.o(.constdata) for .constdata$1
    example_tcpip.o(i.GPIOPin_Config) refers to ql_func.o(.bss) for Ql_sprintf
    example_tcpip.o(i.Socket_DataSend_Function) refers to ql_func.o(i.Ql_SocketSend) for Ql_SocketSend
    example_tcpip.o(i.Socket_DataSend_Function) refers to ql_func.o(i.Ql_SecondToTicks) for Ql_SecondToTicks
    example_tcpip.o(i.Socket_DataSend_Function) refers to ql_func.o(i.Ql_StartTimer) for Ql_StartTimer
    example_tcpip.o(i.Socket_DataSend_Function) refers to example_tcpip.o(.data) for socketonly
    example_tcpip.o(i.Socket_DataSend_Function) refers to example_tcpip.o(.bss) for .bss$2
    example_tcpip.o(i.PrepareString) refers to ql_func.o(i.Ql_strlen) for Ql_strlen
    example_tcpip.o(i.PrepareString) refers to ql_func.o(i.Ql_SendToUart) for Ql_SendToUart
    example_tcpip.o(i.PrepareString) refers to example_tcpip.o(.bss) for .bss$2
    example_tcpip.o(i.PrepareString) refers to example_tcpip.o(.data) for owen_number
    example_tcpip.o(i.PrepareString) refers to example_tcpip.o(.constdata) for .constdata$1
    example_tcpip.o(i.PrepareString) refers to ql_func.o(.bss) for Ql_sprintf
    example_tcpip.o(i.AdcPrepareString) refers to ql_func.o(i.Ql_strlen) for Ql_strlen
    example_tcpip.o(i.AdcPrepareString) refers to ql_func.o(i.Ql_SendToUart) for Ql_SendToUart
    example_tcpip.o(i.AdcPrepareString) refers to example_tcpip.o(.bss) for .bss$2
    example_tcpip.o(i.AdcPrepareString) refers to example_tcpip.o(.data) for owen_number
    example_tcpip.o(i.AdcPrepareString) refers to example_tcpip.o(.constdata) for .constdata$1
    example_tcpip.o(i.AdcPrepareString) refers to ql_func.o(.bss) for Ql_sprintf
    example_tcpip.o(i.openfile2) refers to ql_func.o(i.Ql_strstr) for Ql_strstr
    example_tcpip.o(i.openfile2) refers to ql_func.o(i.Ql_FileOpen) for Ql_FileOpen
    example_tcpip.o(i.openfile2) refers to ql_func.o(i.Ql_strlen) for Ql_strlen
    example_tcpip.o(i.openfile2) refers to ql_func.o(i.Ql_SendToUart) for Ql_SendToUart
    example_tcpip.o(i.openfile2) refers to example_tcpip.o(.constdata) for .constdata$1
    example_tcpip.o(i.openfile2) refers to example_tcpip.o(.data) for .data$0
    example_tcpip.o(i.openfile2) refers to example_tcpip.o(.bss) for .bss$2
    example_tcpip.o(i.openfile2) refers to ql_func.o(.bss) for Ql_sprintf
    example_tcpip.o(i.openfile1) refers to ql_func.o(i.Ql_strstr) for Ql_strstr
    example_tcpip.o(i.openfile1) refers to ql_func.o(i.Ql_FileOpen) for Ql_FileOpen
    example_tcpip.o(i.openfile1) refers to ql_func.o(i.Ql_strlen) for Ql_strlen
    example_tcpip.o(i.openfile1) refers to ql_func.o(i.Ql_SendToUart) for Ql_SendToUart
    example_tcpip.o(i.openfile1) refers to example_tcpip.o(.constdata) for .constdata$1
    example_tcpip.o(i.openfile1) refers to example_tcpip.o(.data) for .data$0
    example_tcpip.o(i.openfile1) refers to example_tcpip.o(.bss) for .bss$2
    example_tcpip.o(i.openfile1) refers to ql_func.o(.bss) for Ql_sprintf
    example_tcpip.o(i.FileSyatem_ReadFunction) refers to example_tcpip.o(i.openfile1) for openfile1
    example_tcpip.o(i.FileSyatem_ReadFunction) refers to example_tcpip.o(i.openfile2) for openfile2
    example_tcpip.o(i.FileSyatem_ReadFunction) refers to ql_func.o(i.Ql_memset) for Ql_memset
    example_tcpip.o(i.FileSyatem_ReadFunction) refers to ql_func.o(i.Ql_FileSeek) for Ql_FileSeek
    example_tcpip.o(i.FileSyatem_ReadFunction) refers to ql_func.o(i.Ql_FileRead) for Ql_FileRead
    example_tcpip.o(i.FileSyatem_ReadFunction) refers to ql_func.o(i.Ql_strlen) for Ql_strlen
    example_tcpip.o(i.FileSyatem_ReadFunction) refers to ql_func.o(i.Ql_SendToUart) for Ql_SendToUart
    example_tcpip.o(i.FileSyatem_ReadFunction) refers to example_tcpip.o(i.AdcPrepareString) for AdcPrepareString
    example_tcpip.o(i.FileSyatem_ReadFunction) refers to example_tcpip.o(i.PrepareString) for PrepareString
    example_tcpip.o(i.FileSyatem_ReadFunction) refers to ql_func.o(i.Ql_FileGetFilePosition) for Ql_FileGetFilePosition
    example_tcpip.o(i.FileSyatem_ReadFunction) refers to ql_func.o(i.Ql_FileWrite) for Ql_FileWrite
    example_tcpip.o(i.FileSyatem_ReadFunction) refers to example_tcpip.o(.bss) for .bss$2
    example_tcpip.o(i.FileSyatem_ReadFunction) refers to example_tcpip.o(.data) for .data$0
    example_tcpip.o(i.FileSyatem_ReadFunction) refers to example_tcpip.o(.constdata) for .constdata$1
    example_tcpip.o(i.FileSyatem_ReadFunction) refers to ql_func.o(.bss) for Ql_sprintf
    example_tcpip.o(i.FileSyatem_ReadFunction) refers to example_tcpip.o(i.Socket_DataSend_Function) for Socket_DataSend_Function
    example_tcpip.o(i.FileSyatem_ReadFunction) refers to ql_func.o(i.Ql_FileClose) for Ql_FileClose
    example_tcpip.o(i.iosend_function) refers to example_tcpip.o(i.openfile1) for openfile1
    example_tcpip.o(i.iosend_function) refers to example_tcpip.o(i.openfile2) for openfile2
    example_tcpip.o(i.iosend_function) refers to example_tcpip.o(i.CHECKFLAG) for CHECKFLAG
    example_tcpip.o(i.iosend_function) refers to example_tcpip.o(i.RESETFLAG) for RESETFLAG
    example_tcpip.o(i.iosend_function) refers to ql_func.o(i.Ql_memset) for Ql_memset
    example_tcpip.o(i.iosend_function) refers to ql_func.o(i.Ql_FileSeek) for Ql_FileSeek
    example_tcpip.o(i.iosend_function) refers to ql_func.o(i.Ql_FileRead) for Ql_FileRead
    example_tcpip.o(i.iosend_function) refers to ql_func.o(i.Ql_strlen) for Ql_strlen
    example_tcpip.o(i.iosend_function) refers to ql_func.o(i.Ql_SendToUart) for Ql_SendToUart
    example_tcpip.o(i.iosend_function) refers to ql_func.o(i.Ql_FileWrite) for Ql_FileWrite
    example_tcpip.o(i.iosend_function) refers to ql_func.o(i.Ql_FileGetFilePosition) for Ql_FileGetFilePosition
    example_tcpip.o(i.iosend_function) refers to example_tcpip.o(.bss) for .bss$2
    example_tcpip.o(i.iosend_function) refers to example_tcpip.o(.data) for .data$0
    example_tcpip.o(i.iosend_function) refers to example_tcpip.o(.constdata) for .constdata$1
    example_tcpip.o(i.iosend_function) refers to ql_func.o(.bss) for Ql_sprintf
    example_tcpip.o(i.iosend_function) refers to ql_func.o(i.Ql_FileClose) for Ql_FileClose
    example_tcpip.o(i.iosend_function) refers to example_tcpip.o(i.FileSyatem_ReadFunction) for FileSyatem_ReadFunction
    example_tcpip.o(i.io_send) refers to example_tcpip.o(i.iosend_function) for iosend_function
    example_tcpip.o(i.io_send) refers to example_tcpip.o(.bss) for .bss$2
    example_tcpip.o(i.io_send) refers to example_tcpip.o(.data) for .data$0
    example_tcpip.o(i.GPIO_ReadFunction) refers to ql_func.o(i.Ql_pinRead) for Ql_pinRead
    example_tcpip.o(i.GPIO_ReadFunction) refers to ql_func.o(i.Ql_strlen) for Ql_strlen
    example_tcpip.o(i.GPIO_ReadFunction) refers to ql_func.o(i.Ql_SendToUart) for Ql_SendToUart
    example_tcpip.o(i.GPIO_ReadFunction) refers to ql_func.o(i.Ql_pinWrite) for Ql_pinWrite
    example_tcpip.o(i.GPIO_ReadFunction) refers to example_tcpip.o(i.SETFLAG) for SETFLAG
    example_tcpip.o(i.GPIO_ReadFunction) refers to example_tcpip.o(i.io_send) for io_send
    example_tcpip.o(i.GPIO_ReadFunction) refers to example_tcpip.o(i.CHECKFLAG) for CHECKFLAG
    example_tcpip.o(i.GPIO_ReadFunction) refers to example_tcpip.o(i.iosend_function) for iosend_function
    example_tcpip.o(i.GPIO_ReadFunction) refers to example_tcpip.o(.bss) for .bss$2
    example_tcpip.o(i.GPIO_ReadFunction) refers to example_tcpip.o(.data) for .data$0
    example_tcpip.o(i.GPIO_ReadFunction) refers to ql_func.o(.bss) for Ql_sprintf
    example_tcpip.o(i.GPIO_ReadFunction) refers to example_tcpip.o(.constdata) for .constdata$1
    example_tcpip.o(i.Power_Supply_Pulse) refers to ql_func.o(i.Ql_pinWrite) for Ql_pinWrite
    example_tcpip.o(i.Power_Supply_Pulse) refers to ql_func.o(i.Ql_strlen) for Ql_strlen
    example_tcpip.o(i.Power_Supply_Pulse) refers to ql_func.o(i.Ql_SendToUart) for Ql_SendToUart
    example_tcpip.o(i.Power_Supply_Pulse) refers to example_tcpip.o(.bss) for .bss$2
    example_tcpip.o(i.Power_Supply_Pulse) refers to example_tcpip.o(.constdata) for .constdata$1
    example_tcpip.o(i.Power_Supply_Pulse) refers to ql_func.o(.bss) for Ql_sprintf
    example_tcpip.o(i.uart1_datahandler) refers to example_tcpip.o(.bss) for .bss$2
    example_tcpip.o(i.Send_GSMVersionString) refers to ql_func.o(i.Ql_strlen) for Ql_strlen
    example_tcpip.o(i.Send_GSMVersionString) refers to ql_func.o(i.Ql_SendToUart) for Ql_SendToUart
    example_tcpip.o(i.Send_GSMVersionString) refers to example_tcpip.o(i.Socket_DataSend_Function) for Socket_DataSend_Function
    example_tcpip.o(i.Send_GSMVersionString) refers to example_tcpip.o(.bss) for .bss$2
    example_tcpip.o(i.Send_GSMVersionString) refers to example_tcpip.o(.data) for owen_number
    example_tcpip.o(i.Send_GSMVersionString) refers to example_tcpip.o(.constdata) for .constdata$1
    example_tcpip.o(i.Send_GSMVersionString) refers to ql_func.o(.bss) for Ql_sprintf
    example_tcpip.o(i.adcsend_function) refers to example_tcpip.o(i.openfile1) for openfile1
    example_tcpip.o(i.adcsend_function) refers to example_tcpip.o(i.openfile2) for openfile2
    example_tcpip.o(i.adcsend_function) refers to ql_func.o(i.Ql_memset) for Ql_memset
    example_tcpip.o(i.adcsend_function) refers to ql_func.o(i.Ql_FileSeek) for Ql_FileSeek
    example_tcpip.o(i.adcsend_function) refers to ql_func.o(i.Ql_FileRead) for Ql_FileRead
    example_tcpip.o(i.adcsend_function) refers to ql_func.o(i.Ql_strlen) for Ql_strlen
    example_tcpip.o(i.adcsend_function) refers to ql_func.o(i.Ql_SendToUart) for Ql_SendToUart
    example_tcpip.o(i.adcsend_function) refers to ql_func.o(i.Ql_FileWrite) for Ql_FileWrite
    example_tcpip.o(i.adcsend_function) refers to ql_func.o(i.Ql_FileGetFilePosition) for Ql_FileGetFilePosition
    example_tcpip.o(i.adcsend_function) refers to ql_func.o(i.Ql_FileClose) for Ql_FileClose
    example_tcpip.o(i.adcsend_function) refers to example_tcpip.o(.bss) for .bss$2
    example_tcpip.o(i.adcsend_function) refers to example_tcpip.o(.data) for .data$0
    example_tcpip.o(i.adcsend_function) refers to example_tcpip.o(.constdata) for .constdata$1
    example_tcpip.o(i.adcsend_function) refers to ql_func.o(.bss) for Ql_sprintf
    example_tcpip.o(i.adcsend_function) refers to example_tcpip.o(i.FileSyatem_ReadFunction) for FileSyatem_ReadFunction
    example_tcpip.o(i.AdcFunction) refers to example_tcpip.o(i.adcsend_function) for adcsend_function
    example_tcpip.o(i.AdcFunction) refers to example_tcpip.o(.bss) for .bss$2
    example_tcpip.o(i.filesystem_function) refers to example_tcpip.o(i.openfile1) for openfile1
    example_tcpip.o(i.filesystem_function) refers to example_tcpip.o(i.openfile2) for openfile2
    example_tcpip.o(i.filesystem_function) refers to ql_func.o(i.Ql_memset) for Ql_memset
    example_tcpip.o(i.filesystem_function) refers to ql_func.o(i.Ql_FileSeek) for Ql_FileSeek
    example_tcpip.o(i.filesystem_function) refers to ql_func.o(i.Ql_FileRead) for Ql_FileRead
    example_tcpip.o(i.filesystem_function) refers to ql_func.o(i.Ql_strlen) for Ql_strlen
    example_tcpip.o(i.filesystem_function) refers to ql_func.o(i.Ql_SendToUart) for Ql_SendToUart
    example_tcpip.o(i.filesystem_function) refers to ql_func.o(i.Ql_FileWrite) for Ql_FileWrite
    example_tcpip.o(i.filesystem_function) refers to ql_func.o(i.Ql_FileGetFilePosition) for Ql_FileGetFilePosition
    example_tcpip.o(i.filesystem_function) refers to example_tcpip.o(.bss) for .bss$2
    example_tcpip.o(i.filesystem_function) refers to example_tcpip.o(.data) for .data$0
    example_tcpip.o(i.filesystem_function) refers to example_tcpip.o(.constdata) for .constdata$1
    example_tcpip.o(i.filesystem_function) refers to ql_func.o(.bss) for Ql_sprintf
    example_tcpip.o(i.filesystem_function) refers to ql_func.o(i.Ql_FileClose) for Ql_FileClose
    example_tcpip.o(i.filesystem_function) refers to example_tcpip.o(i.FileSyatem_ReadFunction) for FileSyatem_ReadFunction
    example_tcpip.o(i.key_send) refers to example_tcpip.o(i.filesystem_function) for filesystem_function
    example_tcpip.o(i.key_send) refers to example_tcpip.o(.data) for .data$0
    example_tcpip.o(i.key_send) refers to example_tcpip.o(.bss) for .bss$2
    example_tcpip.o(i.uart2_datahandler) refers to ql_func.o(i.Ql_memset) for Ql_memset
    example_tcpip.o(i.uart2_datahandler) refers to ql_func.o(i.Ql_pinWrite) for Ql_pinWrite
    example_tcpip.o(i.uart2_datahandler) refers to ql_func.o(i.Ql_strlen) for Ql_strlen
    example_tcpip.o(i.uart2_datahandler) refers to ql_func.o(i.Ql_SendToUart) for Ql_SendToUart
    example_tcpip.o(i.uart2_datahandler) refers to example_tcpip.o(.bss) for .bss$2
    example_tcpip.o(i.uart2_datahandler) refers to example_tcpip.o(.constdata) for .constdata$1
    example_tcpip.o(i.Callback_Read_ADC) refers to ql_func.o(i.Ql_strlen) for Ql_strlen
    example_tcpip.o(i.Callback_Read_ADC) refers to ql_func.o(i.Ql_SendToUart) for Ql_SendToUart
    example_tcpip.o(i.Callback_Read_ADC) refers to rt_udiv.o(.text) for __rt_udiv
    example_tcpip.o(i.Callback_Read_ADC) refers to rtudiv10.o(.text) for __rt_udiv10
    example_tcpip.o(i.Callback_Read_ADC) refers to example_tcpip.o(.constdata) for .constdata$1
    example_tcpip.o(i.Callback_Read_ADC) refers to ql_func.o(.bss) for Ql_DebugTrace
    example_tcpip.o(i.Callback_Read_ADC) refers to ql_func.o(.bss) for Ql_sprintf
    example_tcpip.o(i.Callback_Read_ADC) refers to example_tcpip.o(.bss) for .bss$2
    example_tcpip.o(i.CallBack_GprsAPNGet) refers to ql_func.o(i.Ql_memset) for Ql_memset
    example_tcpip.o(i.CallBack_GprsAPNGet) refers to ql_func.o(i.Ql_strlen) for Ql_strlen
    example_tcpip.o(i.CallBack_GprsAPNGet) refers to ql_func.o(i.Ql_SendToUart) for Ql_SendToUart
    example_tcpip.o(i.CallBack_GprsAPNGet) refers to ql_func.o(i.Ql_GprsNetworkActive) for Ql_GprsNetworkActive
    example_tcpip.o(i.CallBack_GprsAPNGet) refers to example_tcpip.o(.bss) for .bss$2
    example_tcpip.o(i.CallBack_GprsAPNGet) refers to example_tcpip.o(.constdata) for .constdata$1
    example_tcpip.o(i.CallBack_GprsAPNGet) refers to ql_func.o(.bss) for Ql_sprintf
    example_tcpip.o(i.CallBack_GprsAPNSet) refers to ql_func.o(i.Ql_memset) for Ql_memset
    example_tcpip.o(i.CallBack_GprsAPNSet) refers to ql_func.o(i.Ql_strlen) for Ql_strlen
    example_tcpip.o(i.CallBack_GprsAPNSet) refers to ql_func.o(i.Ql_SendToUart) for Ql_SendToUart
    example_tcpip.o(i.CallBack_GprsAPNSet) refers to ql_func.o(i.Ql_GprsAPNGet) for Ql_GprsAPNGet
    example_tcpip.o(i.CallBack_GprsAPNSet) refers to example_tcpip.o(.bss) for .bss$2
    example_tcpip.o(i.CallBack_GprsAPNSet) refers to example_tcpip.o(.constdata) for .constdata$1
    example_tcpip.o(i.CallBack_GprsAPNSet) refers to ql_func.o(.bss) for Ql_sprintf
    example_tcpip.o(i.CallBack_GprsAPNSet) refers to example_tcpip.o(i.CallBack_GprsAPNGet) for CallBack_GprsAPNGet
    example_tcpip.o(i.ql_entry) refers to rt_memcpy_w.o(.text) for __rt_memcpy_w
    example_tcpip.o(i.ql_entry) refers to ql_func.o(i.Ql_MillisecondToTicks) for Ql_MillisecondToTicks
    example_tcpip.o(i.ql_entry) refers to ql_func.o(i.Ql_SecondToTicks) for Ql_SecondToTicks
    example_tcpip.o(i.ql_entry) refers to ql_func.o(i.Ql_StartTimer) for Ql_StartTimer
    example_tcpip.o(i.ql_entry) refers to ql_func.o(i.Ql_OpenModemPort) for Ql_OpenModemPort
    example_tcpip.o(i.ql_entry) refers to example_tcpip.o(i.RESETFLAG) for RESETFLAG
    example_tcpip.o(i.ql_entry) refers to ql_func.o(i.Ql_SetDebugMode) for Ql_SetDebugMode
    example_tcpip.o(i.ql_entry) refers to ql_func.o(i.Ql_SetUartBaudRate) for Ql_SetUartBaudRate
    example_tcpip.o(i.ql_entry) refers to ql_func.o(i.Ql_UartForceSendEscape) for Ql_UartForceSendEscape
    example_tcpip.o(i.ql_entry) refers to ql_func.o(i.Ql_strlen) for Ql_strlen
    example_tcpip.o(i.ql_entry) refers to ql_func.o(i.Ql_SendToUart) for Ql_SendToUart
    example_tcpip.o(i.ql_entry) refers to ql_func.o(i.Ql_UartClrTxBuffer) for Ql_UartClrTxBuffer
    example_tcpip.o(i.ql_entry) refers to ql_func.o(i.Ql_UartClrRxBuffer) for Ql_UartClrRxBuffer
    example_tcpip.o(i.ql_entry) refers to ql_func.o(i.Ql_FileCheck) for Ql_FileCheck
    example_tcpip.o(i.ql_entry) refers to ql_func.o(i.Ql_strstr) for Ql_strstr
    example_tcpip.o(i.ql_entry) refers to ql_func.o(i.Ql_FileOpen) for Ql_FileOpen
    example_tcpip.o(i.ql_entry) refers to ql_func.o(i.Ql_FileClose) for Ql_FileClose
    example_tcpip.o(i.ql_entry) refers to ql_func.o(i.Ql_memset) for Ql_memset
    example_tcpip.o(i.ql_entry) refers to ql_func.o(i.Ql_FileWrite) for Ql_FileWrite
    example_tcpip.o(i.ql_entry) refers to ql_func.o(i.Ql_FileSeek) for Ql_FileSeek
    example_tcpip.o(i.ql_entry) refers to ql_func.o(i.Ql_FileRead) for Ql_FileRead
    example_tcpip.o(i.ql_entry) refers to example_tcpip.o(.constdata) for .constdata$1
    example_tcpip.o(i.ql_entry) refers to example_tcpip.o(.bss) for .bss$2
    example_tcpip.o(i.ql_entry) refers to ql_func.o(.bss) for Ql_sprintf
    example_tcpip.o(i.ql_entry) refers to ql_func.o(.bss) for Ql_DebugTrace
    example_tcpip.o(i.ql_entry) refers to example_tcpip.o(.data) for .data$0
    example_tcpip.o(i.ql_entry) refers to example_tcpip.o(i.OpenSetting_File) for OpenSetting_File
    example_tcpip.o(i.ql_entry) refers to rtsdiv10.o(.text) for __rt_sdiv10
    example_tcpip.o(i.ql_entry) refers to example_tcpip.o(i.GPIOPin_Config) for GPIOPin_Config
    example_tcpip.o(i.ql_entry) refers to example_tcpip.o(i.Power_Supply_Pulse) for Power_Supply_Pulse
    example_tcpip.o(i.ql_entry) refers to ql_func.o(i.Ql_GprsNetworkInitialize) for Ql_GprsNetworkInitialize
    example_tcpip.o(i.ql_entry) refers to example_tcpip.o(i.SendGPS_Setting) for SendGPS_Setting
    example_tcpip.o(i.ql_entry) refers to ql_func.o(i.Ql_GetEvent) for Ql_GetEvent
    example_tcpip.o(i.ql_entry) refers to example_tcpip.o(i.key_send) for key_send
    example_tcpip.o(i.ql_entry) refers to example_tcpip.o(i.SendAtCmd_Message_Read) for SendAtCmd_Message_Read
    example_tcpip.o(i.ql_entry) refers to example_tcpip.o(i.Uart1_setting_received) for Uart1_setting_received
    example_tcpip.o(i.ql_entry) refers to example_tcpip.o(i.SendAtCmd) for SendAtCmd
    example_tcpip.o(i.ql_entry) refers to example_tcpip.o(i.uart2_datahandler) for uart2_datahandler
    example_tcpip.o(i.ql_entry) refers to ql_func.o(i.Ql_StopTimer) for Ql_StopTimer
    example_tcpip.o(i.ql_entry) refers to ql_func.o(i.Ql_GprsAPNSet) for Ql_GprsAPNSet
    example_tcpip.o(i.ql_entry) refers to example_tcpip.o(i.CallBack_GprsAPNSet) for CallBack_GprsAPNSet
    example_tcpip.o(i.ql_entry) refers to example_tcpip.o(i.filesystem_function) for filesystem_function
    example_tcpip.o(i.ql_entry) refers to example_tcpip.o(i.Send_GSMVersionString) for Send_GSMVersionString
    example_tcpip.o(i.ql_entry) refers to ql_func.o(i.Ql_Reset) for Ql_Reset
    example_tcpip.o(i.ql_entry) refers to ql_func.o(i.Ql_ReadADC) for Ql_ReadADC
    example_tcpip.o(i.ql_entry) refers to example_tcpip.o(i.AdcFunction) for AdcFunction
    example_tcpip.o(i.ql_entry) refers to ql_func.o(i.Ql_FileGetSize) for Ql_FileGetSize
    example_tcpip.o(i.ql_entry) refers to ql_func.o(i.Ql_Fota_Core_Init) for Ql_Fota_Core_Init
    example_tcpip.o(i.ql_entry) refers to ql_func.o(i.Ql_Fota_Core_Write_Data) for Ql_Fota_Core_Write_Data
    example_tcpip.o(i.ql_entry) refers to ql_func.o(i.Ql_Fota_Core_Finish) for Ql_Fota_Core_Finish
    example_tcpip.o(i.ql_entry) refers to ql_func.o(i.Ql_Fota_App_Init) for Ql_Fota_App_Init
    example_tcpip.o(i.ql_entry) refers to ql_func.o(i.Ql_Fota_App_Write_Data) for Ql_Fota_App_Write_Data
    example_tcpip.o(i.ql_entry) refers to ql_func.o(i.Ql_Fota_App_Finish) for Ql_Fota_App_Finish
    example_tcpip.o(i.ql_entry) refers to ql_func.o(i.Ql_Fota_Update) for Ql_Fota_Update
    example_tcpip.o(i.ql_entry) refers to example_tcpip.o(i.GPIO_ReadFunction) for GPIO_ReadFunction
    example_tcpip.o(i.ql_entry) refers to ql_func.o(i.Ql_GprsNetworkUnInitialize) for Ql_GprsNetworkUnInitialize
    example_tcpip.o(i.ql_entry) refers to example_tcpip.o(i.Callback_Read_ADC) for Callback_Read_ADC
    example_tcpip.o(i.CallBack_network_actived) refers to ql_func.o(i.Ql_memset) for Ql_memset
    example_tcpip.o(i.CallBack_network_actived) refers to ql_func.o(i.Ql_strlen) for Ql_strlen
    example_tcpip.o(i.CallBack_network_actived) refers to ql_func.o(i.Ql_SendToUart) for Ql_SendToUart
    example_tcpip.o(i.CallBack_network_actived) refers to ql_func.o(i.Ql_GetLocalIpAddress) for Ql_GetLocalIpAddress
    example_tcpip.o(i.CallBack_network_actived) refers to ql_func.o(i.Ql_SocketCreate) for Ql_SocketCreate
    example_tcpip.o(i.CallBack_network_actived) refers to ql_func.o(i.Ql_SocketConnect) for Ql_SocketConnect
    example_tcpip.o(i.CallBack_network_actived) refers to example_tcpip.o(.bss) for .bss$2
    example_tcpip.o(i.CallBack_network_actived) refers to example_tcpip.o(.constdata) for .constdata$1
    example_tcpip.o(i.CallBack_network_actived) refers to ql_func.o(.bss) for Ql_sprintf
    example_tcpip.o(i.CallBack_network_actived) refers to example_tcpip.o(.data) for socketonly
    example_tcpip.o(i.CallBack_network_deactived) refers to ql_func.o(i.Ql_memset) for Ql_memset
    example_tcpip.o(i.CallBack_network_deactived) refers to ql_func.o(i.Ql_strlen) for Ql_strlen
    example_tcpip.o(i.CallBack_network_deactived) refers to ql_func.o(i.Ql_SendToUart) for Ql_SendToUart
    example_tcpip.o(i.CallBack_network_deactived) refers to ql_func.o(i.Ql_SocketClose) for Ql_SocketClose
    example_tcpip.o(i.CallBack_network_deactived) refers to ql_func.o(i.Ql_StartTimer) for Ql_StartTimer
    example_tcpip.o(i.CallBack_network_deactived) refers to example_tcpip.o(.bss) for .bss$2
    example_tcpip.o(i.CallBack_network_deactived) refers to example_tcpip.o(.constdata) for .constdata$1
    example_tcpip.o(i.CallBack_network_deactived) refers to ql_func.o(.bss) for Ql_sprintf
    example_tcpip.o(i.CallBack_network_deactived) refers to example_tcpip.o(.data) for socketonly
    example_tcpip.o(i.CallBack_getipbyname) refers to ql_func.o(i.Ql_memset) for Ql_memset
    example_tcpip.o(i.CallBack_getipbyname) refers to ql_func.o(i.Ql_strlen) for Ql_strlen
    example_tcpip.o(i.CallBack_getipbyname) refers to ql_func.o(i.Ql_SendToUart) for Ql_SendToUart
    example_tcpip.o(i.CallBack_getipbyname) refers to example_tcpip.o(.bss) for .bss$2
    example_tcpip.o(i.CallBack_getipbyname) refers to example_tcpip.o(.constdata) for .constdata$1
    example_tcpip.o(i.CallBack_getipbyname) refers to ql_func.o(.bss) for Ql_sprintf
    example_tcpip.o(i.CallBack_socket_connect) refers to ql_func.o(i.Ql_memset) for Ql_memset
    example_tcpip.o(i.CallBack_socket_connect) refers to ql_func.o(i.Ql_strlen) for Ql_strlen
    example_tcpip.o(i.CallBack_socket_connect) refers to ql_func.o(i.Ql_SendToUart) for Ql_SendToUart
    example_tcpip.o(i.CallBack_socket_connect) refers to ql_func.o(i.Ql_StopTimer) for Ql_StopTimer
    example_tcpip.o(i.CallBack_socket_connect) refers to ql_func.o(i.Ql_StartTimer) for Ql_StartTimer
    example_tcpip.o(i.CallBack_socket_connect) refers to ql_func.o(i.Ql_pinWrite) for Ql_pinWrite
    example_tcpip.o(i.CallBack_socket_connect) refers to example_tcpip.o(i.Send_GSMVersionString) for Send_GSMVersionString
    example_tcpip.o(i.CallBack_socket_connect) refers to ql_func.o(i.Ql_Reset) for Ql_Reset
    example_tcpip.o(i.CallBack_socket_connect) refers to example_tcpip.o(.bss) for .bss$2
    example_tcpip.o(i.CallBack_socket_connect) refers to example_tcpip.o(.constdata) for .constdata$1
    example_tcpip.o(i.CallBack_socket_connect) refers to ql_func.o(.bss) for Ql_sprintf
    example_tcpip.o(i.CallBack_socket_close) refers to ql_func.o(i.Ql_memset) for Ql_memset
    example_tcpip.o(i.CallBack_socket_close) refers to ql_func.o(i.Ql_strlen) for Ql_strlen
    example_tcpip.o(i.CallBack_socket_close) refers to ql_func.o(i.Ql_SendToUart) for Ql_SendToUart
    example_tcpip.o(i.CallBack_socket_close) refers to ql_func.o(i.Ql_SocketClose) for Ql_SocketClose
    example_tcpip.o(i.CallBack_socket_close) refers to ql_func.o(i.Ql_pinWrite) for Ql_pinWrite
    example_tcpip.o(i.CallBack_socket_close) refers to example_tcpip.o(.bss) for .bss$2
    example_tcpip.o(i.CallBack_socket_close) refers to example_tcpip.o(.constdata) for .constdata$1
    example_tcpip.o(i.CallBack_socket_close) refers to ql_func.o(.bss) for Ql_sprintf
    example_tcpip.o(i.CallBack_socket_close) refers to example_tcpip.o(.data) for socketonly
    example_tcpip.o(i.CallBack_socket_read) refers to ql_func.o(i.Ql_memset) for Ql_memset
    example_tcpip.o(i.CallBack_socket_read) refers to ql_func.o(i.Ql_strlen) for Ql_strlen
    example_tcpip.o(i.CallBack_socket_read) refers to ql_func.o(i.Ql_SendToUart) for Ql_SendToUart
    example_tcpip.o(i.CallBack_socket_read) refers to ql_func.o(i.Ql_SocketRecv) for Ql_SocketRecv
    example_tcpip.o(i.CallBack_socket_read) refers to ql_func.o(i.Ql_SocketClose) for Ql_SocketClose
    example_tcpip.o(i.CallBack_socket_read) refers to ql_func.o(i.Ql_StopTimer) for Ql_StopTimer
    example_tcpip.o(i.CallBack_socket_read) refers to ql_func.o(i.Ql_GprsNetworkDeactive) for Ql_GprsNetworkDeactive
    example_tcpip.o(i.CallBack_socket_read) refers to example_tcpip.o(i.SendAtCmd) for SendAtCmd
    example_tcpip.o(i.CallBack_socket_read) refers to example_tcpip.o(i.FileSyatem_ReadFunction) for FileSyatem_ReadFunction
    example_tcpip.o(i.CallBack_socket_read) refers to ql_func.o(i.Ql_SocketRecvFrom) for Ql_SocketRecvFrom
    example_tcpip.o(i.CallBack_socket_read) refers to example_tcpip.o(.data) for udponly
    example_tcpip.o(i.CallBack_socket_read) refers to example_tcpip.o(.bss) for .bss$2
    example_tcpip.o(i.CallBack_socket_read) refers to example_tcpip.o(.constdata) for .constdata$1
    example_tcpip.o(i.CallBack_socket_read) refers to ql_func.o(.bss) for Ql_sprintf
    example_tcpip.o(i.CallBack_socket_write) refers to ql_func.o(i.Ql_memset) for Ql_memset
    example_tcpip.o(i.CallBack_socket_write) refers to ql_func.o(i.Ql_strlen) for Ql_strlen
    example_tcpip.o(i.CallBack_socket_write) refers to ql_func.o(i.Ql_SendToUart) for Ql_SendToUart
    example_tcpip.o(i.CallBack_socket_write) refers to ql_func.o(i.Ql_SocketSend) for Ql_SocketSend
    example_tcpip.o(i.CallBack_socket_write) refers to ql_func.o(i.Ql_SocketClose) for Ql_SocketClose
    example_tcpip.o(i.CallBack_socket_write) refers to example_tcpip.o(.bss) for .bss$2
    example_tcpip.o(i.CallBack_socket_write) refers to example_tcpip.o(.constdata) for .constdata$1
    example_tcpip.o(i.CallBack_socket_write) refers to ql_func.o(.bss) for Ql_sprintf
    example_tcpip.o(i.CallBack_socket_write) refers to example_tcpip.o(.data) for socketonly
    example_tcpip.o(.data) refers to example_tcpip.o(i.CallBack_network_actived) for CallBack_network_actived
    example_tcpip.o(.data) refers to example_tcpip.o(i.CallBack_network_deactived) for CallBack_network_deactived
    example_tcpip.o(.data) refers to example_tcpip.o(i.CallBack_socket_connect) for CallBack_socket_connect
    example_tcpip.o(.data) refers to example_tcpip.o(i.CallBack_socket_close) for CallBack_socket_close
    example_tcpip.o(.data) refers to example_tcpip.o(i.CallBack_socket_accept) for CallBack_socket_accept
    example_tcpip.o(.data) refers to example_tcpip.o(i.CallBack_socket_read) for CallBack_socket_read
    example_tcpip.o(.data) refers to example_tcpip.o(i.CallBack_socket_write) for CallBack_socket_write
    lib_init.o(.text) refers to fpinit.o(x$fpl$fpinit) for _fp_init
    lib_init.o(.text) refers to libspace.o(.text) for __user_libspace
    rt_udiv.o(.text) refers to rt_div0.o(.text) for __rt_div0
    libspace.o(.text) refers to libspace.o(.bss) for __libspace_start
    rt_div0.o(.text) refers to rt_raise.o(.text) for __rt_raise
    fpinit.o(x$fpl$fpinit) refers to rt_fp_status_addr.o(.text) for __rt_fp_status_addr
    rt_fp_status_addr.o(.text) refers to libspace.o(.text) for __user_libspace
    rt_raise.o(.text) refers to __raise.o(.text) for __raise
    rt_raise.o(.text) refers to sys_exit.o(.text) for _sys_exit
    __raise.o(.text) refers to defsig.o(.text) for __default_signal_handler
    __raise.o(.text) refers to callvia.o(.text) for __call_via_r2
    sys_exit.o(.text) refers to use_semi.o(.text) for __I_use_semihosting_swi
    defsig.o(.text) refers to sys_wrch.o(.text) for _ttywrch
    defsig.o(.text) refers to defsig.o(.constdata) for .constdata$1
    sys_wrch.o(.text) refers (Special) to use_semi.o(.text) for __I_use_semihosting_swi


================================================================================

Image Symbol Table

    Mapping Symbols

    Sym    Value        Execution Region

    $d     0x00200000   EXTSRAMCPU
    $f     0x00200038   EXTSRAMCPU
    $f     0x0020003c   EXTSRAMCPU
    $f     0x00200040   EXTSRAMCPU
    $f     0x00200044   EXTSRAMCPU
    $f     0x00200048   EXTSRAMCPU
    $f     0x0020004c   EXTSRAMCPU
    $f     0x00200050   EXTSRAMCPU
    $d     0x002000d8   EXTSRAMCPU
    $d     0x08640000   ROMCPU0
    $f     0x08640000   ROMCPU0
    $f     0x08640004   ROMCPU0
    $t     0x08640044   ROMCPU1
    $d     0x08640046   ROMCPU1
    $a     0x08640048   ROMCPU1
    $t     0x086400b4   ROMCPU1
    $d     0x086400b6   ROMCPU1
    $a     0x086400b8   ROMCPU1
    $t     0x08640178   ROMCPU1
    $d     0x0864017a   ROMCPU1
    $a     0x0864017c   ROMCPU1
    $t     0x086401bc   ROMCPU1
    $d     0x086401be   ROMCPU1
    $a     0x086401c0   ROMCPU1
    $t     0x086401ec   ROMCPU1
    $d     0x086401ee   ROMCPU1
    $a     0x086401f0   ROMCPU1
    $t     0x086401fc   ROMCPU1
    $d     0x086401fe   ROMCPU1
    $a     0x08640200   ROMCPU1
    $t     0x0864021c   ROMCPU1
    $b     0x0864022a   ROMCPU1
    $b     0x08640238   ROMCPU1
    $b     0x0864024e   ROMCPU1
    $d     0x08640256   ROMCPU1
    $t     0x08640260   ROMCPU1
    $d     0x08640262   ROMCPU1
    $a     0x08640264   ROMCPU1
    $d     0x08640274   ROMCPU1
    $f     0x08640274   ROMCPU1
    $t     0x0864027c   ROMCPU1
    $b     0x086402e8   ROMCPU1
    $b     0x086402f6   ROMCPU1
    $b     0x0864030a   ROMCPU1
    $b     0x08640316   ROMCPU1
    $d     0x08640322   ROMCPU1
    $t     0x086403a4   ROMCPU1
    $d     0x086403a6   ROMCPU1
    $a     0x086403a8   ROMCPU1
    $t     0x086403ac   ROMCPU1
    $d     0x086403be   ROMCPU1
    $t     0x086403c0   ROMCPU1
    $b     0x0864049c   ROMCPU1
    $d     0x086404a2   ROMCPU1
    $t     0x086404ac   ROMCPU1
    $p     0x08640540   ROMCPU1
    $b     0x08640544   ROMCPU1
    $b     0x0864054e   ROMCPU1
    $d     0x08640554   ROMCPU1
    $t     0x0864056c   ROMCPU1
    $d     0x0864057c   ROMCPU1
    $t     0x08640580   ROMCPU1
    $b     0x08640592   ROMCPU1
    $p     0x086405ac   ROMCPU1
    $b     0x086405b0   ROMCPU1
    $b     0x086405ba   ROMCPU1
    $b     0x086405c0   ROMCPU1
    $b     0x086405cc   ROMCPU1
    $p     0x086405dc   ROMCPU1
    $b     0x086405e0   ROMCPU1
    $b     0x086405ea   ROMCPU1
    $d     0x086405f2   ROMCPU1
    $t     0x08640600   ROMCPU1
    $b     0x0864060e   ROMCPU1
    $p     0x0864061e   ROMCPU1
    $b     0x08640622   ROMCPU1
    $b     0x0864062c   ROMCPU1
    $b     0x08640638   ROMCPU1
    $b     0x08640644   ROMCPU1
    $p     0x08640654   ROMCPU1
    $b     0x08640658   ROMCPU1
    $b     0x08640662   ROMCPU1
    $d     0x08640668   ROMCPU1
    $f     0x08640674   ROMCPU1
    $t     0x08640678   ROMCPU1
    $b     0x0864068a   ROMCPU1
    $p     0x086406a0   ROMCPU1
    $b     0x086406a4   ROMCPU1
    $b     0x086406ae   ROMCPU1
    $b     0x086406c2   ROMCPU1
    $p     0x086406e0   ROMCPU1
    $b     0x086406e4   ROMCPU1
    $b     0x086406ee   ROMCPU1
    $d     0x08640702   ROMCPU1
    $t     0x08640710   ROMCPU1
    $b     0x0864071e   ROMCPU1
    $p     0x0864072c   ROMCPU1
    $b     0x08640730   ROMCPU1
    $b     0x0864073a   ROMCPU1
    $b     0x08640742   ROMCPU1
    $b     0x08640750   ROMCPU1
    $p     0x08640772   ROMCPU1
    $b     0x08640776   ROMCPU1
    $b     0x08640780   ROMCPU1
    $b     0x0864078c   ROMCPU1
    $b     0x08640798   ROMCPU1
    $p     0x086407a8   ROMCPU1
    $b     0x086407ac   ROMCPU1
    $b     0x086407b6   ROMCPU1
    $b     0x086407c4   ROMCPU1
    $p     0x086407d0   ROMCPU1
    $b     0x086407e2   ROMCPU1
    $b     0x086407f0   ROMCPU1
    $p     0x08640810   ROMCPU1
    $b     0x08640814   ROMCPU1
    $b     0x0864081e   ROMCPU1
    $b     0x0864082c   ROMCPU1
    $p     0x08640838   ROMCPU1
    $b     0x08640846   ROMCPU1
    $p     0x08640852   ROMCPU1
    $b     0x0864085e   ROMCPU1
    $p     0x0864086a   ROMCPU1
    $b     0x0864086e   ROMCPU1
    $b     0x08640878   ROMCPU1
    $d     0x08640880   ROMCPU1
    $t     0x08640898   ROMCPU1
    $b     0x086408a6   ROMCPU1
    $p     0x086408b8   ROMCPU1
    $b     0x086408bc   ROMCPU1
    $b     0x086408c6   ROMCPU1
    $b     0x086408da   ROMCPU1
    $b     0x086408ea   ROMCPU1
    $b     0x086408fc   ROMCPU1
    $b     0x0864090c   ROMCPU1
    $b     0x0864091c   ROMCPU1
    $d     0x08640922   ROMCPU1
    $t     0x0864093c   ROMCPU1
    $d     0x0864093e   ROMCPU1
    $t     0x08640940   ROMCPU1
    $b     0x08640956   ROMCPU1
    $p     0x0864096c   ROMCPU1
    $b     0x08640970   ROMCPU1
    $b     0x0864097a   ROMCPU1
    $b     0x08640980   ROMCPU1
    $b     0x086409a8   ROMCPU1
    $p     0x086409be   ROMCPU1
    $b     0x086409c2   ROMCPU1
    $b     0x086409cc   ROMCPU1
    $d     0x086409d4   ROMCPU1
    $t     0x086409f0   ROMCPU1
    $b     0x08640a02   ROMCPU1
    $p     0x08640a16   ROMCPU1
    $b     0x08640a1a   ROMCPU1
    $b     0x08640a24   ROMCPU1
    $b     0x08640a34   ROMCPU1
    $b     0x08640a3c   ROMCPU1
    $b     0x08640a44   ROMCPU1
    $b     0x08640a4c   ROMCPU1
    $p     0x08640a60   ROMCPU1
    $b     0x08640a64   ROMCPU1
    $b     0x08640a6e   ROMCPU1
    $b     0x08640a76   ROMCPU1
    $b     0x08640a7e   ROMCPU1
    $b     0x08640a8a   ROMCPU1
    $d     0x08640a90   ROMCPU1
    $t     0x08640aa8   ROMCPU1
    $b     0x08640ad6   ROMCPU1
    $p     0x08640afc   ROMCPU1
    $b     0x08640b00   ROMCPU1
    $b     0x08640b0a   ROMCPU1
    $b     0x08640b1c   ROMCPU1
    $b     0x08640b32   ROMCPU1
    $p     0x08640b42   ROMCPU1
    $b     0x08640b46   ROMCPU1
    $b     0x08640b50   ROMCPU1
    $b     0x08640b56   ROMCPU1
    $b     0x08640bc0   ROMCPU1
    $b     0x08640bc8   ROMCPU1
    $b     0x08640bce   ROMCPU1
    $b     0x08640bd4   ROMCPU1
    $b     0x08640be2   ROMCPU1
    $p     0x08640bf8   ROMCPU1
    $b     0x08640bfc   ROMCPU1
    $b     0x08640c06   ROMCPU1
    $b     0x08640c16   ROMCPU1
    $b     0x08640c20   ROMCPU1
    $b     0x08640c24   ROMCPU1
    $b     0x08640c48   ROMCPU1
    $p     0x08640c5e   ROMCPU1
    $b     0x08640c62   ROMCPU1
    $b     0x08640c70   ROMCPU1
    $b     0x08640c96   ROMCPU1
    $b     0x08640cb4   ROMCPU1
    $p     0x08640cca   ROMCPU1
    $b     0x08640cce   ROMCPU1
    $b     0x08640cd8   ROMCPU1
    $b     0x08640cea   ROMCPU1
    $b     0x08640d00   ROMCPU1
    $p     0x08640d10   ROMCPU1
    $b     0x08640d14   ROMCPU1
    $b     0x08640d1e   ROMCPU1
    $b     0x08640d24   ROMCPU1
    $b     0x08640d56   ROMCPU1
    $p     0x08640d78   ROMCPU1
    $b     0x08640d7c   ROMCPU1
    $b     0x08640d86   ROMCPU1
    $b     0x08640d96   ROMCPU1
    $p     0x08640dac   ROMCPU1
    $b     0x08640db0   ROMCPU1
    $b     0x08640dba   ROMCPU1
    $d     0x08640dc0   ROMCPU1
    $t     0x08640de4   ROMCPU1
    $b     0x08640df6   ROMCPU1
    $p     0x08640e0a   ROMCPU1
    $b     0x08640e0e   ROMCPU1
    $b     0x08640e18   ROMCPU1
    $b     0x08640e40   ROMCPU1
    $p     0x08640e4e   ROMCPU1
    $b     0x08640e52   ROMCPU1
    $b     0x08640e5c   ROMCPU1
    $b     0x08640e72   ROMCPU1
    $b     0x08640e7e   ROMCPU1
    $p     0x08640e96   ROMCPU1
    $b     0x08640e9a   ROMCPU1
    $b     0x08640ea4   ROMCPU1
    $b     0x08640ec8   ROMCPU1
    $d     0x08640ee8   ROMCPU1
    $t     0x08640f00   ROMCPU1
    $p     0x08640f16   ROMCPU1
    $p     0x08640f26   ROMCPU1
    $b     0x08640f2a   ROMCPU1
    $b     0x08640f34   ROMCPU1
    $b     0x08640f3e   ROMCPU1
    $b     0x08640f4a   ROMCPU1
    $b     0x08640f54   ROMCPU1
    $d     0x08640f66   ROMCPU1
    $t     0x08640f78   ROMCPU1
    $b     0x08640f7a   ROMCPU1
    $b     0x08640f7e   ROMCPU1
    $b     0x08640f8a   ROMCPU1
    $b     0x08640f98   ROMCPU1
    $b     0x08640fa2   ROMCPU1
    $b     0x08640fae   ROMCPU1
    $b     0x08640fba   ROMCPU1
    $b     0x08640fc0   ROMCPU1
    $b     0x08640fca   ROMCPU1
    $p     0x08640fd8   ROMCPU1
    $b     0x08640fdc   ROMCPU1
    $b     0x08640fe6   ROMCPU1
    $b     0x08640fee   ROMCPU1
    $b     0x08640ffa   ROMCPU1
    $b     0x08641208   ROMCPU1
    $b     0x08641216   ROMCPU1
    $p     0x08641228   ROMCPU1
    $b     0x0864122c   ROMCPU1
    $b     0x08641236   ROMCPU1
    $b     0x08641240   ROMCPU1
    $b     0x0864124a   ROMCPU1
    $b     0x0864125a   ROMCPU1
    $b     0x08641272   ROMCPU1
    $b     0x0864127a   ROMCPU1
    $p     0x0864128c   ROMCPU1
    $b     0x08641290   ROMCPU1
    $b     0x0864129a   ROMCPU1
    $b     0x086412a4   ROMCPU1
    $p     0x086412b4   ROMCPU1
    $b     0x086412b8   ROMCPU1
    $b     0x086412c2   ROMCPU1
    $b     0x086412cc   ROMCPU1
    $b     0x086412d8   ROMCPU1
    $b     0x086412e0   ROMCPU1
    $b     0x086412f0   ROMCPU1
    $p     0x08641300   ROMCPU1
    $b     0x08641304   ROMCPU1
    $b     0x0864130e   ROMCPU1
    $b     0x08641316   ROMCPU1
    $b     0x08641322   ROMCPU1
    $b     0x0864132c   ROMCPU1
    $b     0x08641332   ROMCPU1
    $b     0x0864133e   ROMCPU1
    $p     0x0864134e   ROMCPU1
    $b     0x08641352   ROMCPU1
    $b     0x0864135c   ROMCPU1
    $d     0x08641366   ROMCPU1
    $t     0x086413b8   ROMCPU1
    $b     0x086413c0   ROMCPU1
    $b     0x086413ca   ROMCPU1
    $b     0x086413d0   ROMCPU1
    $b     0x086413da   ROMCPU1
    $p     0x086413e8   ROMCPU1
    $b     0x086413ec   ROMCPU1
    $b     0x086413f6   ROMCPU1
    $b     0x086413fc   ROMCPU1
    $b     0x08641406   ROMCPU1
    $b     0x0864140a   ROMCPU1
    $b     0x08641412   ROMCPU1
    $b     0x08641422   ROMCPU1
    $p     0x0864142e   ROMCPU1
    $b     0x08641432   ROMCPU1
    $b     0x0864143c   ROMCPU1
    $b     0x08641442   ROMCPU1
    $b     0x0864144e   ROMCPU1
    $p     0x0864145a   ROMCPU1
    $b     0x0864145e   ROMCPU1
    $b     0x08641468   ROMCPU1
    $d     0x0864146e   ROMCPU1
    $t     0x0864147c   ROMCPU1
    $b     0x08641488   ROMCPU1
    $b     0x08641492   ROMCPU1
    $p     0x086414aa   ROMCPU1
    $b     0x086414ae   ROMCPU1
    $b     0x086414b8   ROMCPU1
    $b     0x086414d2   ROMCPU1
    $p     0x086414f4   ROMCPU1
    $b     0x086414f8   ROMCPU1
    $b     0x08641502   ROMCPU1
    $b     0x08641518   ROMCPU1
    $p     0x0864153c   ROMCPU1
    $b     0x08641540   ROMCPU1
    $b     0x0864154a   ROMCPU1
    $b     0x08641560   ROMCPU1
    $p     0x08641584   ROMCPU1
    $b     0x08641588   ROMCPU1
    $b     0x08641592   ROMCPU1
    $b     0x086415a8   ROMCPU1
    $p     0x086415ce   ROMCPU1
    $b     0x086415d2   ROMCPU1
    $b     0x086415dc   ROMCPU1
    $b     0x086415f2   ROMCPU1
    $p     0x08641618   ROMCPU1
    $b     0x0864161c   ROMCPU1
    $b     0x08641626   ROMCPU1
    $b     0x0864163c   ROMCPU1
    $p     0x0864165e   ROMCPU1
    $b     0x08641662   ROMCPU1
    $b     0x0864166c   ROMCPU1
    $b     0x08641682   ROMCPU1
    $p     0x086416a8   ROMCPU1
    $b     0x086416ac   ROMCPU1
    $b     0x086416b6   ROMCPU1
    $b     0x086416cc   ROMCPU1
    $p     0x086416f2   ROMCPU1
    $b     0x086416f6   ROMCPU1
    $b     0x08641700   ROMCPU1
    $b     0x08641716   ROMCPU1
    $p     0x0864173c   ROMCPU1
    $b     0x08641740   ROMCPU1
    $b     0x0864174a   ROMCPU1
    $b     0x08641766   ROMCPU1
    $p     0x08641788   ROMCPU1
    $b     0x0864178c   ROMCPU1
    $b     0x08641796   ROMCPU1
    $b     0x086417ae   ROMCPU1
    $p     0x086417d0   ROMCPU1
    $b     0x086417d4   ROMCPU1
    $b     0x086417de   ROMCPU1
    $b     0x086417e6   ROMCPU1
    $p     0x086417f8   ROMCPU1
    $b     0x086417fc   ROMCPU1
    $b     0x08641806   ROMCPU1
    $b     0x0864181c   ROMCPU1
    $p     0x0864183c   ROMCPU1
    $b     0x08641840   ROMCPU1
    $b     0x0864184a   ROMCPU1
    $d     0x08641862   ROMCPU1
    $t     0x08641878   ROMCPU1
    $b     0x0864187a   ROMCPU1
    $p     0x0864189a   ROMCPU1
    $b     0x0864189e   ROMCPU1
    $b     0x086418a8   ROMCPU1
    $b     0x086418ce   ROMCPU1
    $p     0x086418e6   ROMCPU1
    $b     0x086418ea   ROMCPU1
    $b     0x086418f4   ROMCPU1
    $d     0x086418fc   ROMCPU1
    $t     0x08641904   ROMCPU1
    $b     0x0864190a   ROMCPU1
    $p     0x0864194a   ROMCPU1
    $b     0x0864194e   ROMCPU1
    $b     0x08641958   ROMCPU1
    $b     0x08641966   ROMCPU1
    $p     0x086419a2   ROMCPU1
    $b     0x086419a6   ROMCPU1
    $b     0x086419b0   ROMCPU1
    $b     0x086419be   ROMCPU1
    $p     0x086419fa   ROMCPU1
    $b     0x086419fe   ROMCPU1
    $b     0x08641a08   ROMCPU1
    $b     0x08641a16   ROMCPU1
    $p     0x08641a52   ROMCPU1
    $b     0x08641a56   ROMCPU1
    $b     0x08641a60   ROMCPU1
    $b     0x08641a6e   ROMCPU1
    $p     0x08641a94   ROMCPU1
    $b     0x08641a98   ROMCPU1
    $b     0x08641aa2   ROMCPU1
    $b     0x08641aaa   ROMCPU1
    $p     0x08641aba   ROMCPU1
    $b     0x08641abe   ROMCPU1
    $b     0x08641ac8   ROMCPU1
    $b     0x08641ad4   ROMCPU1
    $b     0x08641b06   ROMCPU1
    $b     0x08641b1a   ROMCPU1
    $b     0x08641b24   ROMCPU1
    $d     0x08641b2a   ROMCPU1
    $t     0x08641b44   ROMCPU1
    $b     0x08641b4e   ROMCPU1
    $b     0x08641b5c   ROMCPU1
    $b     0x08641b68   ROMCPU1
    $p     0x08641b84   ROMCPU1
    $b     0x08641b88   ROMCPU1
    $b     0x08641b92   ROMCPU1
    $d     0x08641b98   ROMCPU1
    $t     0x08641ba8   ROMCPU1
    $b     0x08641bae   ROMCPU1
    $p     0x08641bc6   ROMCPU1
    $b     0x08641bca   ROMCPU1
    $b     0x08641bd4   ROMCPU1
    $b     0x08641bfe   ROMCPU1
    $p     0x08641c12   ROMCPU1
    $b     0x08641c16   ROMCPU1
    $b     0x08641c20   ROMCPU1
    $d     0x08641c26   ROMCPU1
    $t     0x08641c3c   ROMCPU1
    $p     0x08641cbe   ROMCPU1
    $b     0x08641cc2   ROMCPU1
    $b     0x08641ccc   ROMCPU1
    $d     0x08641cd2   ROMCPU1
    $t     0x08641cec   ROMCPU1
    $p     0x08641cf6   ROMCPU1
    $p     0x08641d00   ROMCPU1
    $d     0x08641d06   ROMCPU1
    $t     0x08641d18   ROMCPU1
    $p     0x08641d22   ROMCPU1
    $p     0x08641d2c   ROMCPU1
    $d     0x08641d32   ROMCPU1
    $t     0x08641d44   ROMCPU1
    $p     0x08641d4e   ROMCPU1
    $p     0x08641d58   ROMCPU1
    $d     0x08641d5e   ROMCPU1
    $t     0x08641d70   ROMCPU1
    $p     0x08641d7a   ROMCPU1
    $p     0x08641d84   ROMCPU1
    $d     0x08641d8a   ROMCPU1
    $t     0x08641d9c   ROMCPU1
    $p     0x08641da6   ROMCPU1
    $p     0x08641db0   ROMCPU1
    $d     0x08641db6   ROMCPU1
    $t     0x08641dc8   ROMCPU1
    $p     0x08641dda   ROMCPU1
    $p     0x08641de4   ROMCPU1
    $d     0x08641dea   ROMCPU1
    $t     0x08641dfc   ROMCPU1
    $p     0x08641e06   ROMCPU1
    $p     0x08641e10   ROMCPU1
    $d     0x08641e16   ROMCPU1
    $t     0x08641e28   ROMCPU1
    $p     0x08641e32   ROMCPU1
    $p     0x08641e3a   ROMCPU1
    $d     0x08641e3e   ROMCPU1
    $t     0x08641e48   ROMCPU1
    $p     0x08641e52   ROMCPU1
    $p     0x08641e5e   ROMCPU1
    $d     0x08641e64   ROMCPU1
    $t     0x08641e70   ROMCPU1
    $p     0x08641e7a   ROMCPU1
    $p     0x08641e86   ROMCPU1
    $d     0x08641e8c   ROMCPU1
    $t     0x08641e98   ROMCPU1
    $p     0x08641ea2   ROMCPU1
    $p     0x08641eae   ROMCPU1
    $d     0x08641eb2   ROMCPU1
    $t     0x08641ebc   ROMCPU1
    $p     0x08641ec6   ROMCPU1
    $p     0x08641ed2   ROMCPU1
    $d     0x08641ed8   ROMCPU1
    $t     0x08641ee4   ROMCPU1
    $p     0x08641eee   ROMCPU1
    $p     0x08641efa   ROMCPU1
    $d     0x08641f00   ROMCPU1
    $t     0x08641f0c   ROMCPU1
    $p     0x08641f16   ROMCPU1
    $p     0x08641f22   ROMCPU1
    $d     0x08641f26   ROMCPU1
    $t     0x08641f30   ROMCPU1
    $p     0x08641f42   ROMCPU1
    $p     0x08641f4e   ROMCPU1
    $d     0x08641f54   ROMCPU1
    $t     0x08641f60   ROMCPU1
    $p     0x08641f72   ROMCPU1
    $p     0x08641f7e   ROMCPU1
    $d     0x08641f84   ROMCPU1
    $t     0x08641f90   ROMCPU1
    $p     0x08641f9a   ROMCPU1
    $p     0x08641fa6   ROMCPU1
    $d     0x08641faa   ROMCPU1
    $t     0x08641fb4   ROMCPU1
    $p     0x08641fbe   ROMCPU1
    $p     0x08641fca   ROMCPU1
    $d     0x08641fd0   ROMCPU1
    $t     0x08641fdc   ROMCPU1
    $p     0x08641fe6   ROMCPU1
    $p     0x08641fee   ROMCPU1
    $d     0x08641ff4   ROMCPU1
    $t     0x08642000   ROMCPU1
    $p     0x0864200a   ROMCPU1
    $p     0x08642016   ROMCPU1
    $d     0x0864201c   ROMCPU1
    $t     0x08642028   ROMCPU1
    $p     0x08642032   ROMCPU1
    $p     0x0864203e   ROMCPU1
    $d     0x08642044   ROMCPU1
    $t     0x08642050   ROMCPU1
    $p     0x0864205a   ROMCPU1
    $p     0x08642066   ROMCPU1
    $d     0x0864206c   ROMCPU1
    $t     0x08642078   ROMCPU1
    $p     0x08642082   ROMCPU1
    $p     0x0864208e   ROMCPU1
    $d     0x08642094   ROMCPU1
    $t     0x086420a0   ROMCPU1
    $p     0x086420aa   ROMCPU1
    $p     0x086420b6   ROMCPU1
    $d     0x086420bc   ROMCPU1
    $t     0x086420c8   ROMCPU1
    $p     0x086420d2   ROMCPU1
    $p     0x086420de   ROMCPU1
    $d     0x086420e4   ROMCPU1
    $t     0x086420f0   ROMCPU1
    $p     0x086420fa   ROMCPU1
    $p     0x08642106   ROMCPU1
    $d     0x0864210c   ROMCPU1
    $t     0x08642118   ROMCPU1
    $p     0x08642122   ROMCPU1
    $p     0x0864212e   ROMCPU1
    $d     0x08642134   ROMCPU1
    $t     0x08642140   ROMCPU1
    $p     0x0864214a   ROMCPU1
    $p     0x08642156   ROMCPU1
    $d     0x0864215c   ROMCPU1
    $t     0x08642168   ROMCPU1
    $p     0x08642172   ROMCPU1
    $p     0x0864217e   ROMCPU1
    $d     0x08642184   ROMCPU1
    $t     0x08642190   ROMCPU1
    $p     0x0864219a   ROMCPU1
    $p     0x086421a6   ROMCPU1
    $d     0x086421ac   ROMCPU1
    $t     0x086421b8   ROMCPU1
    $p     0x086421c2   ROMCPU1
    $p     0x086421ce   ROMCPU1
    $d     0x086421d4   ROMCPU1
    $t     0x086421e0   ROMCPU1
    $p     0x086421ea   ROMCPU1
    $p     0x086421f4   ROMCPU1
    $d     0x086421f8   ROMCPU1
    $t     0x08642204   ROMCPU1
    $p     0x0864220e   ROMCPU1
    $p     0x08642218   ROMCPU1
    $d     0x0864221c   ROMCPU1
    $t     0x08642228   ROMCPU1
    $p     0x08642232   ROMCPU1
    $p     0x0864223c   ROMCPU1
    $d     0x08642242   ROMCPU1
    $t     0x08642254   ROMCPU1
    $p     0x0864225e   ROMCPU1
    $p     0x08642268   ROMCPU1
    $d     0x0864226c   ROMCPU1
    $t     0x08642278   ROMCPU1
    $p     0x08642282   ROMCPU1
    $p     0x0864228c   ROMCPU1
    $d     0x08642290   ROMCPU1
    $t     0x0864229c   ROMCPU1
    $p     0x086422a6   ROMCPU1
    $p     0x086422b0   ROMCPU1
    $d     0x086422b6   ROMCPU1
    $t     0x086422c8   ROMCPU1
    $p     0x086422d2   ROMCPU1
    $p     0x086422dc   ROMCPU1
    $d     0x086422e2   ROMCPU1
    $t     0x086422f4   ROMCPU1
    $p     0x086422fe   ROMCPU1
    $p     0x08642306   ROMCPU1
    $d     0x0864230c   ROMCPU1
    $t     0x08642318   ROMCPU1
    $p     0x08642322   ROMCPU1
    $p     0x0864232c   ROMCPU1
    $d     0x08642332   ROMCPU1
    $t     0x08642344   ROMCPU1
    $p     0x0864234e   ROMCPU1
    $p     0x08642358   ROMCPU1
    $d     0x0864235e   ROMCPU1
    $t     0x0864236c   ROMCPU1
    $p     0x08642376   ROMCPU1
    $p     0x08642380   ROMCPU1
    $d     0x08642386   ROMCPU1
    $t     0x08642398   ROMCPU1
    $p     0x086423aa   ROMCPU1
    $p     0x086423b4   ROMCPU1
    $d     0x086423b8   ROMCPU1
    $t     0x086423c4   ROMCPU1
    $p     0x086423ce   ROMCPU1
    $p     0x086423d8   ROMCPU1
    $d     0x086423de   ROMCPU1
    $t     0x086423f0   ROMCPU1
    $p     0x086423fa   ROMCPU1
    $p     0x08642402   ROMCPU1
    $d     0x08642406   ROMCPU1
    $t     0x08642410   ROMCPU1
    $p     0x08642430   ROMCPU1
    $p     0x0864243a   ROMCPU1
    $d     0x08642440   ROMCPU1
    $t     0x08642450   ROMCPU1
    $p     0x0864245a   ROMCPU1
    $p     0x08642464   ROMCPU1
    $d     0x0864246a   ROMCPU1
    $t     0x0864247c   ROMCPU1
    $p     0x08642486   ROMCPU1
    $p     0x08642490   ROMCPU1
    $d     0x08642496   ROMCPU1
    $t     0x086424a4   ROMCPU1
    $p     0x086424ae   ROMCPU1
    $p     0x086424b8   ROMCPU1
    $d     0x086424be   ROMCPU1
    $t     0x086424d0   ROMCPU1
    $p     0x086424da   ROMCPU1
    $p     0x086424e4   ROMCPU1
    $d     0x086424ea   ROMCPU1
    $t     0x086424f8   ROMCPU1
    $p     0x08642502   ROMCPU1
    $p     0x0864250a   ROMCPU1
    $d     0x0864250e   ROMCPU1
    $t     0x08642518   ROMCPU1
    $p     0x08642522   ROMCPU1
    $p     0x0864252c   ROMCPU1
    $d     0x08642532   ROMCPU1
    $t     0x08642544   ROMCPU1
    $p     0x0864254e   ROMCPU1
    $p     0x08642558   ROMCPU1
    $d     0x0864255e   ROMCPU1
    $t     0x08642570   ROMCPU1
    $p     0x0864257a   ROMCPU1
    $p     0x08642582   ROMCPU1
    $d     0x08642586   ROMCPU1
    $t     0x08642590   ROMCPU1
    $p     0x0864259a   ROMCPU1
    $p     0x086425a4   ROMCPU1
    $d     0x086425ac   ROMCPU1
    $t     0x086425c0   ROMCPU1
    $p     0x086425ca   ROMCPU1
    $p     0x086425d4   ROMCPU1
    $d     0x086425da   ROMCPU1
    $t     0x086425e8   ROMCPU1
    $b     0x08642600   ROMCPU1
    $b     0x08642614   ROMCPU1
    $d     0x0864261c   ROMCPU1
    $t     0x08642620   ROMCPU1
    $p     0x0864262a   ROMCPU1
    $p     0x08642634   ROMCPU1
    $d     0x0864263c   ROMCPU1
    $t     0x08642648   ROMCPU1
    $p     0x08642652   ROMCPU1
    $p     0x0864265c   ROMCPU1
    $d     0x08642662   ROMCPU1
    $t     0x08642674   ROMCPU1
    $p     0x0864267e   ROMCPU1
    $p     0x08642688   ROMCPU1
    $d     0x0864268e   ROMCPU1
    $t     0x086426a0   ROMCPU1
    $p     0x086426aa   ROMCPU1
    $p     0x086426b4   ROMCPU1
    $d     0x086426ba   ROMCPU1
    $t     0x086426cc   ROMCPU1
    $p     0x086426de   ROMCPU1
    $p     0x086426e8   ROMCPU1
    $d     0x086426ee   ROMCPU1
    $t     0x08642700   ROMCPU1
    $p     0x0864270a   ROMCPU1
    $p     0x08642714   ROMCPU1
    $d     0x0864271a   ROMCPU1
    $t     0x0864272c   ROMCPU1
    $p     0x08642736   ROMCPU1
    $p     0x08642740   ROMCPU1
    $d     0x08642746   ROMCPU1
    $t     0x08642758   ROMCPU1
    $p     0x08642762   ROMCPU1
    $p     0x0864276c   ROMCPU1
    $d     0x08642772   ROMCPU1
    $t     0x08642784   ROMCPU1
    $p     0x0864278e   ROMCPU1
    $p     0x08642798   ROMCPU1
    $d     0x0864279e   ROMCPU1
    $t     0x086427b0   ROMCPU1
    $p     0x086427ba   ROMCPU1
    $p     0x086427c4   ROMCPU1
    $d     0x086427ca   ROMCPU1
    $t     0x086427dc   ROMCPU1
    $p     0x086427e6   ROMCPU1
    $p     0x086427f0   ROMCPU1
    $d     0x086427f6   ROMCPU1
    $t     0x08642804   ROMCPU1
    $p     0x0864280e   ROMCPU1
    $p     0x08642818   ROMCPU1
    $d     0x0864281e   ROMCPU1
    $t     0x0864282c   ROMCPU1
    $p     0x08642836   ROMCPU1
    $p     0x08642840   ROMCPU1
    $d     0x08642846   ROMCPU1
    $t     0x08642854   ROMCPU1
    $p     0x0864285e   ROMCPU1
    $p     0x08642868   ROMCPU1
    $d     0x0864286e   ROMCPU1
    $t     0x0864287c   ROMCPU1
    $p     0x08642886   ROMCPU1
    $p     0x08642890   ROMCPU1
    $d     0x08642896   ROMCPU1
    $t     0x086428a8   ROMCPU1
    $p     0x086428ba   ROMCPU1
    $p     0x086428c4   ROMCPU1
    $d     0x086428ca   ROMCPU1
    $t     0x086428dc   ROMCPU1
    $p     0x086428e6   ROMCPU1
    $p     0x086428ee   ROMCPU1
    $d     0x086428f2   ROMCPU1
    $t     0x086428fc   ROMCPU1
    $p     0x08642906   ROMCPU1
    $p     0x0864290e   ROMCPU1
    $d     0x08642912   ROMCPU1
    $t     0x0864291c   ROMCPU1
    $p     0x08642926   ROMCPU1
    $p     0x08642930   ROMCPU1
    $d     0x08642936   ROMCPU1
    $t     0x08642948   ROMCPU1
    $p     0x08642952   ROMCPU1
    $p     0x0864295a   ROMCPU1
    $d     0x08642960   ROMCPU1
    $t     0x0864296c   ROMCPU1
    $p     0x08642976   ROMCPU1
    $p     0x08642980   ROMCPU1
    $d     0x08642986   ROMCPU1
    $t     0x08642998   ROMCPU1
    $p     0x086429a2   ROMCPU1
    $p     0x086429ac   ROMCPU1
    $d     0x086429b2   ROMCPU1
    $t     0x086429c4   ROMCPU1
    $p     0x086429ce   ROMCPU1
    $p     0x086429d6   ROMCPU1
    $d     0x086429da   ROMCPU1
    $t     0x086429e4   ROMCPU1
    $p     0x086429ee   ROMCPU1
    $p     0x086429f8   ROMCPU1
    $d     0x086429fe   ROMCPU1
    $t     0x08642a10   ROMCPU1
    $p     0x08642a1a   ROMCPU1
    $p     0x08642a24   ROMCPU1
    $d     0x08642a2a   ROMCPU1
    $t     0x08642a3c   ROMCPU1
    $p     0x08642a46   ROMCPU1
    $p     0x08642a50   ROMCPU1
    $d     0x08642a54   ROMCPU1
    $t     0x08642a60   ROMCPU1
    $p     0x08642a6a   ROMCPU1
    $p     0x08642a74   ROMCPU1
    $d     0x08642a78   ROMCPU1
    $t     0x08642a84   ROMCPU1
    $p     0x08642a8e   ROMCPU1
    $p     0x08642a98   ROMCPU1
    $d     0x08642a9e   ROMCPU1
    $t     0x08642aac   ROMCPU1
    $p     0x08642ab6   ROMCPU1
    $p     0x08642ac0   ROMCPU1
    $d     0x08642ac6   ROMCPU1
    $t     0x08642ad8   ROMCPU1
    $p     0x08642ae2   ROMCPU1
    $p     0x08642aec   ROMCPU1
    $d     0x08642af2   ROMCPU1
    $t     0x08642b04   ROMCPU1
    $p     0x08642b0e   ROMCPU1
    $p     0x08642b18   ROMCPU1
    $d     0x08642b1e   ROMCPU1
    $t     0x08642b30   ROMCPU1
    $p     0x08642b3a   ROMCPU1
    $p     0x08642b44   ROMCPU1
    $d     0x08642b4a   ROMCPU1
    $t     0x08642b5c   ROMCPU1
    $p     0x08642b66   ROMCPU1
    $p     0x08642b6e   ROMCPU1
    $d     0x08642b72   ROMCPU1
    $t     0x08642b7c   ROMCPU1
    $p     0x08642b8e   ROMCPU1
    $p     0x08642b98   ROMCPU1
    $d     0x08642b9e   ROMCPU1
    $t     0x08642bb0   ROMCPU1
    $p     0x08642bba   ROMCPU1
    $p     0x08642bc4   ROMCPU1
    $d     0x08642bca   ROMCPU1
    $t     0x08642bdc   ROMCPU1
    $p     0x08642be6   ROMCPU1
    $p     0x08642bf0   ROMCPU1
    $d     0x08642bf6   ROMCPU1
    $t     0x08642c04   ROMCPU1
    $p     0x08642c0e   ROMCPU1
    $p     0x08642c18   ROMCPU1
    $d     0x08642c1e   ROMCPU1
    $t     0x08642c2c   ROMCPU1
    $p     0x08642c36   ROMCPU1
    $p     0x08642c40   ROMCPU1
    $d     0x08642c46   ROMCPU1
    $t     0x08642c58   ROMCPU1
    $p     0x08642c62   ROMCPU1
    $p     0x08642c6c   ROMCPU1
    $d     0x08642c70   ROMCPU1
    $t     0x08642c7c   ROMCPU1
    $p     0x08642c86   ROMCPU1
    $p     0x08642c90   ROMCPU1
    $d     0x08642c96   ROMCPU1
    $t     0x08642ca8   ROMCPU1
    $p     0x08642cb2   ROMCPU1
    $p     0x08642cbc   ROMCPU1
    $d     0x08642cc0   ROMCPU1
    $t     0x08642ccc   ROMCPU1
    $p     0x08642cd6   ROMCPU1
    $p     0x08642ce0   ROMCPU1
    $d     0x08642ce6   ROMCPU1
    $t     0x08642cf8   ROMCPU1
    $p     0x08642d02   ROMCPU1
    $p     0x08642d0c   ROMCPU1
    $d     0x08642d12   ROMCPU1
    $t     0x08642d24   ROMCPU1
    $p     0x08642d2e   ROMCPU1
    $p     0x08642d38   ROMCPU1
    $d     0x08642d3e   ROMCPU1
    $t     0x08642d50   ROMCPU1
    $p     0x08642d5a   ROMCPU1
    $p     0x08642d64   ROMCPU1
    $d     0x08642d6a   ROMCPU1
    $t     0x08642d7c   ROMCPU1
    $p     0x08642d8e   ROMCPU1
    $p     0x08642d98   ROMCPU1
    $d     0x08642d9e   ROMCPU1
    $t     0x08642db0   ROMCPU1
    $p     0x08642dba   ROMCPU1
    $p     0x08642dc4   ROMCPU1
    $d     0x08642dc8   ROMCPU1
    $t     0x08642dd4   ROMCPU1
    $p     0x08642dde   ROMCPU1
    $p     0x08642de8   ROMCPU1
    $d     0x08642dee   ROMCPU1
    $t     0x08642e00   ROMCPU1
    $p     0x08642e0a   ROMCPU1
    $p     0x08642e14   ROMCPU1
    $d     0x08642e1a   ROMCPU1
    $t     0x08642e2c   ROMCPU1
    $p     0x08642e36   ROMCPU1
    $p     0x08642e3e   ROMCPU1
    $d     0x08642e42   ROMCPU1
    $t     0x08642e4c   ROMCPU1
    $p     0x08642e56   ROMCPU1
    $p     0x08642e60   ROMCPU1
    $d     0x08642e68   ROMCPU1
    $t     0x08642e74   ROMCPU1
    $p     0x08642e7e   ROMCPU1
    $p     0x08642e88   ROMCPU1
    $d     0x08642e8e   ROMCPU1
    $t     0x08642ea0   ROMCPU1
    $p     0x08642eaa   ROMCPU1
    $p     0x08642eb4   ROMCPU1
    $d     0x08642eba   ROMCPU1
    $t     0x08642ecc   ROMCPU1
    $p     0x08642ed6   ROMCPU1
    $p     0x08642ee0   ROMCPU1
    $d     0x08642ee6   ROMCPU1
    $t     0x08642ef8   ROMCPU1
    $p     0x08642f02   ROMCPU1
    $p     0x08642f0c   ROMCPU1
    $d     0x08642f12   ROMCPU1
    $t     0x08642f24   ROMCPU1
    $p     0x08642f2e   ROMCPU1
    $p     0x08642f38   ROMCPU1
    $d     0x08642f40   ROMCPU1
    $t     0x08642f4c   ROMCPU1
    $p     0x08642f56   ROMCPU1
    $p     0x08642f60   ROMCPU1
    $d     0x08642f66   ROMCPU1
    $t     0x08642f74   ROMCPU1
    $p     0x08642f7e   ROMCPU1
    $p     0x08642f88   ROMCPU1
    $d     0x08642f8e   ROMCPU1
    $t     0x08642f9c   ROMCPU1
    $p     0x08642fa6   ROMCPU1
    $p     0x08642fb0   ROMCPU1
    $d     0x08642fb6   ROMCPU1
    $t     0x08642fc8   ROMCPU1
    $p     0x08642fd2   ROMCPU1
    $p     0x08642fdc   ROMCPU1
    $d     0x08642fe2   ROMCPU1
    $t     0x08642ff4   ROMCPU1
    $p     0x08643006   ROMCPU1
    $p     0x08643010   ROMCPU1
    $d     0x08643016   ROMCPU1
    $t     0x08643028   ROMCPU1
    $p     0x08643032   ROMCPU1
    $p     0x0864303c   ROMCPU1
    $d     0x08643042   ROMCPU1
    $t     0x08643054   ROMCPU1
    $p     0x08643066   ROMCPU1
    $p     0x08643070   ROMCPU1
    $d     0x08643076   ROMCPU1
    $t     0x08643088   ROMCPU1
    $p     0x08643092   ROMCPU1
    $p     0x0864309c   ROMCPU1
    $d     0x086430a2   ROMCPU1
    $t     0x086430b4   ROMCPU1
    $p     0x086430be   ROMCPU1
    $p     0x086430c8   ROMCPU1
    $d     0x086430ce   ROMCPU1
    $t     0x086430e0   ROMCPU1
    $p     0x086430ea   ROMCPU1
    $p     0x086430f4   ROMCPU1
    $d     0x086430fa   ROMCPU1
    $t     0x0864310c   ROMCPU1
    $p     0x08643116   ROMCPU1
    $p     0x08643120   ROMCPU1
    $d     0x08643126   ROMCPU1
    $t     0x08643134   ROMCPU1
    $p     0x0864313e   ROMCPU1
    $p     0x08643148   ROMCPU1
    $d     0x0864314e   ROMCPU1
    $t     0x08643160   ROMCPU1
    $p     0x0864317a   ROMCPU1
    $p     0x08643184   ROMCPU1
    $d     0x0864318a   ROMCPU1
    $t     0x0864319c   ROMCPU1
    $p     0x086431a6   ROMCPU1
    $p     0x086431b0   ROMCPU1
    $d     0x086431b6   ROMCPU1
    $t     0x086431c4   ROMCPU1
    $p     0x086431ce   ROMCPU1
    $p     0x086431d6   ROMCPU1
    $d     0x086431dc   ROMCPU1
    $t     0x086431e4   ROMCPU1
    $p     0x086431ee   ROMCPU1
    $p     0x086431f8   ROMCPU1
    $d     0x086431fe   ROMCPU1
    $t     0x08643210   ROMCPU1
    $p     0x0864321a   ROMCPU1
    $p     0x08643224   ROMCPU1
    $d     0x0864322a   ROMCPU1
    $t     0x0864323c   ROMCPU1
    $p     0x08643246   ROMCPU1
    $p     0x08643250   ROMCPU1
    $d     0x08643254   ROMCPU1
    $t     0x08643260   ROMCPU1
    $p     0x0864326a   ROMCPU1
    $p     0x08643274   ROMCPU1
    $d     0x0864327a   ROMCPU1
    $t     0x0864328c   ROMCPU1
    $p     0x08643296   ROMCPU1
    $p     0x086432a0   ROMCPU1
    $d     0x086432a6   ROMCPU1
    $t     0x086432b8   ROMCPU1
    $p     0x086432c2   ROMCPU1
    $p     0x086432cc   ROMCPU1
    $d     0x086432d2   ROMCPU1
    $t     0x086432e4   ROMCPU1
    $p     0x086432ee   ROMCPU1
    $p     0x086432f8   ROMCPU1
    $d     0x086432fe   ROMCPU1
    $t     0x08643310   ROMCPU1
    $p     0x0864331a   ROMCPU1
    $p     0x08643324   ROMCPU1
    $d     0x0864332a   ROMCPU1
    $t     0x0864333c   ROMCPU1
    $p     0x08643346   ROMCPU1
    $p     0x08643350   ROMCPU1
    $d     0x08643356   ROMCPU1
    $t     0x08643368   ROMCPU1
    $p     0x08643372   ROMCPU1
    $p     0x0864337c   ROMCPU1
    $d     0x08643382   ROMCPU1
    $t     0x08643394   ROMCPU1
    $p     0x0864339e   ROMCPU1
    $p     0x086433a8   ROMCPU1
    $d     0x086433ac   ROMCPU1
    $t     0x086433b8   ROMCPU1
    $p     0x086433c2   ROMCPU1
    $p     0x086433cc   ROMCPU1
    $d     0x086433d0   ROMCPU1
    $t     0x086433dc   ROMCPU1
    $p     0x086433e6   ROMCPU1
    $p     0x086433f0   ROMCPU1
    $d     0x086433f6   ROMCPU1
    $t     0x08643404   ROMCPU1
    $p     0x0864340e   ROMCPU1
    $p     0x08643418   ROMCPU1
    $d     0x0864341e   ROMCPU1
    $t     0x08643430   ROMCPU1
    $p     0x0864343a   ROMCPU1
    $p     0x08643444   ROMCPU1
    $d     0x0864344a   ROMCPU1
    $t     0x08643458   ROMCPU1
    $p     0x08643462   ROMCPU1
    $p     0x0864346c   ROMCPU1
    $d     0x08643470   ROMCPU1
    $t     0x0864347c   ROMCPU1
    $p     0x08643486   ROMCPU1
    $p     0x08643490   ROMCPU1
    $d     0x08643496   ROMCPU1
    $t     0x086434a4   ROMCPU1
    $p     0x086434ae   ROMCPU1
    $p     0x086434b8   ROMCPU1
    $d     0x086434be   ROMCPU1
    $t     0x086434cc   ROMCPU1
    $p     0x086434d6   ROMCPU1
    $p     0x086434e0   ROMCPU1
    $d     0x086434e6   ROMCPU1
    $t     0x086434f4   ROMCPU1
    $p     0x08643506   ROMCPU1
    $p     0x08643510   ROMCPU1
    $d     0x08643516   ROMCPU1
    $t     0x08643524   ROMCPU1
    $p     0x08643536   ROMCPU1
    $p     0x08643540   ROMCPU1
    $d     0x08643546   ROMCPU1
    $t     0x08643554   ROMCPU1
    $p     0x0864355e   ROMCPU1
    $p     0x08643568   ROMCPU1
    $d     0x0864356e   ROMCPU1
    $t     0x08643580   ROMCPU1
    $p     0x0864358a   ROMCPU1
    $p     0x08643594   ROMCPU1
    $d     0x0864359a   ROMCPU1
    $t     0x086435a8   ROMCPU1
    $p     0x086435ba   ROMCPU1
    $p     0x086435c4   ROMCPU1
    $d     0x086435ca   ROMCPU1
    $t     0x086435d8   ROMCPU1
    $p     0x086435e2   ROMCPU1
    $p     0x086435ec   ROMCPU1
    $d     0x086435f2   ROMCPU1
    $t     0x08643600   ROMCPU1
    $p     0x0864360a   ROMCPU1
    $p     0x08643614   ROMCPU1
    $d     0x0864361a   ROMCPU1
    $t     0x08643628   ROMCPU1
    $p     0x08643632   ROMCPU1
    $p     0x0864363c   ROMCPU1
    $d     0x08643642   ROMCPU1
    $t     0x08643654   ROMCPU1
    $p     0x0864365e   ROMCPU1
    $p     0x08643668   ROMCPU1
    $d     0x0864366e   ROMCPU1
    $t     0x0864367c   ROMCPU1
    $p     0x08643686   ROMCPU1
    $p     0x08643690   ROMCPU1
    $d     0x08643696   ROMCPU1
    $t     0x086436a4   ROMCPU1
    $p     0x086436ae   ROMCPU1
    $p     0x086436ba   ROMCPU1
    $d     0x086436be   ROMCPU1
    $t     0x086436c8   ROMCPU1
    $p     0x086436d2   ROMCPU1
    $p     0x086436de   ROMCPU1
    $d     0x086436e2   ROMCPU1
    $t     0x086436ec   ROMCPU1
    $p     0x086436f6   ROMCPU1
    $p     0x08643702   ROMCPU1
    $d     0x08643708   ROMCPU1
    $t     0x08643714   ROMCPU1
    $p     0x0864371e   ROMCPU1
    $p     0x08643726   ROMCPU1
    $d     0x0864372e   ROMCPU1
    $t     0x08643740   ROMCPU1
    $p     0x0864374a   ROMCPU1
    $p     0x08643754   ROMCPU1
    $d     0x0864375a   ROMCPU1
    $t     0x0864376c   ROMCPU1
    $p     0x08643776   ROMCPU1
    $p     0x08643780   ROMCPU1
    $d     0x08643786   ROMCPU1
    $t     0x08643798   ROMCPU1
    $p     0x086437a2   ROMCPU1
    $p     0x086437ac   ROMCPU1
    $d     0x086437b2   ROMCPU1
    $t     0x086437c4   ROMCPU1
    $p     0x086437ce   ROMCPU1
    $p     0x086437d8   ROMCPU1
    $d     0x086437de   ROMCPU1
    $t     0x086437f0   ROMCPU1
    $p     0x086437fa   ROMCPU1
    $p     0x08643804   ROMCPU1
    $d     0x0864380a   ROMCPU1
    $t     0x0864381c   ROMCPU1
    $p     0x08643826   ROMCPU1
    $p     0x08643830   ROMCPU1
    $d     0x08643834   ROMCPU1
    $t     0x08643840   ROMCPU1
    $p     0x0864384a   ROMCPU1
    $p     0x08643856   ROMCPU1
    $d     0x0864385a   ROMCPU1
    $t     0x08643864   ROMCPU1
    $p     0x0864386e   ROMCPU1
    $p     0x08643878   ROMCPU1
    $d     0x0864387c   ROMCPU1
    $t     0x08643888   ROMCPU1
    $p     0x08643892   ROMCPU1
    $p     0x0864389a   ROMCPU1
    $d     0x0864389e   ROMCPU1
    $t     0x086438a8   ROMCPU1
    $p     0x086438b2   ROMCPU1
    $p     0x086438ba   ROMCPU1
    $d     0x086438be   ROMCPU1
    $t     0x086438c8   ROMCPU1
    $p     0x086438d2   ROMCPU1
    $p     0x086438da   ROMCPU1
    $d     0x086438e0   ROMCPU1
    $t     0x086438e8   ROMCPU1
    $p     0x086438f2   ROMCPU1
    $p     0x086438fa   ROMCPU1
    $d     0x08643900   ROMCPU1
    $t     0x08643908   ROMCPU1
    $p     0x08643912   ROMCPU1
    $p     0x0864391a   ROMCPU1
    $d     0x08643920   ROMCPU1
    $t     0x0864392c   ROMCPU1
    $p     0x08643936   ROMCPU1
    $p     0x0864393e   ROMCPU1
    $d     0x08643944   ROMCPU1
    $t     0x0864394c   ROMCPU1
    $p     0x08643956   ROMCPU1
    $p     0x0864395e   ROMCPU1
    $d     0x08643964   ROMCPU1
    $t     0x0864396c   ROMCPU1
    $p     0x08643976   ROMCPU1
    $p     0x0864397e   ROMCPU1
    $d     0x08643984   ROMCPU1
    $t     0x0864398c   ROMCPU1
    $p     0x08643996   ROMCPU1
    $p     0x086439a0   ROMCPU1
    $d     0x086439a6   ROMCPU1
    $t     0x086439b4   ROMCPU1
    $p     0x086439be   ROMCPU1
    $p     0x086439c8   ROMCPU1
    $d     0x086439ce   ROMCPU1
    $t     0x086439dc   ROMCPU1
    $p     0x086439e6   ROMCPU1
    $p     0x086439f0   ROMCPU1
    $d     0x086439f6   ROMCPU1
    $t     0x08643a04   ROMCPU1
    $p     0x08643a0e   ROMCPU1
    $p     0x08643a18   ROMCPU1
    $d     0x08643a1e   ROMCPU1
    $t     0x08643a2c   ROMCPU1
    $p     0x08643a36   ROMCPU1
    $p     0x08643a40   ROMCPU1
    $d     0x08643a46   ROMCPU1
    $t     0x08643a54   ROMCPU1
    $p     0x08643a5e   ROMCPU1
    $p     0x08643a68   ROMCPU1
    $d     0x08643a6c   ROMCPU1
    $t     0x08643a78   ROMCPU1
    $p     0x08643a82   ROMCPU1
    $p     0x08643a8c   ROMCPU1
    $d     0x08643a90   ROMCPU1
    $t     0x08643a9c   ROMCPU1
    $p     0x08643aa6   ROMCPU1
    $p     0x08643ab0   ROMCPU1
    $d     0x08643ab6   ROMCPU1
    $t     0x08643ac8   ROMCPU1
    $p     0x08643ad2   ROMCPU1
    $p     0x08643adc   ROMCPU1
    $d     0x08643ae0   ROMCPU1
    $t     0x08643aec   ROMCPU1
    $p     0x08643af6   ROMCPU1
    $p     0x08643b00   ROMCPU1
    $d     0x08643b06   ROMCPU1
    $t     0x08643b14   ROMCPU1
    $p     0x08643b1e   ROMCPU1
    $p     0x08643b2a   ROMCPU1
    $d     0x08643b30   ROMCPU1
    $t     0x08643b3c   ROMCPU1
    $p     0x08643b46   ROMCPU1
    $p     0x08643b52   ROMCPU1
    $d     0x08643b58   ROMCPU1
    $t     0x08643b64   ROMCPU1
    $p     0x08643b6e   ROMCPU1
    $p     0x08643b7a   ROMCPU1
    $d     0x08643b80   ROMCPU1
    $t     0x08643b8c   ROMCPU1
    $p     0x08643b96   ROMCPU1
    $p     0x08643ba2   ROMCPU1
    $d     0x08643ba8   ROMCPU1
    $t     0x08643bb4   ROMCPU1
    $p     0x08643bbe   ROMCPU1
    $p     0x08643bca   ROMCPU1
    $d     0x08643bd0   ROMCPU1
    $t     0x08643bdc   ROMCPU1
    $p     0x08643be6   ROMCPU1
    $p     0x08643bf2   ROMCPU1
    $d     0x08643bf8   ROMCPU1
    $t     0x08643c04   ROMCPU1
    $p     0x08643c0e   ROMCPU1
    $p     0x08643c16   ROMCPU1
    $d     0x08643c1c   ROMCPU1
    $t     0x08643c24   ROMCPU1
    $p     0x08643c2e   ROMCPU1
    $p     0x08643c36   ROMCPU1
    $d     0x08643c3c   ROMCPU1
    $t     0x08643c44   ROMCPU1
    $p     0x08643c4e   ROMCPU1
    $p     0x08643c56   ROMCPU1
    $d     0x08643c5c   ROMCPU1
    $t     0x08643c68   ROMCPU1
    $p     0x08643c72   ROMCPU1
    $p     0x08643c7a   ROMCPU1
    $d     0x08643c80   ROMCPU1
    $t     0x08643c88   ROMCPU1
    $p     0x08643c92   ROMCPU1
    $p     0x08643c9a   ROMCPU1
    $d     0x08643ca0   ROMCPU1
    $t     0x08643ca8   ROMCPU1
    $p     0x08643cb2   ROMCPU1
    $p     0x08643cba   ROMCPU1
    $d     0x08643cc0   ROMCPU1
    $t     0x08643cc8   ROMCPU1
    $p     0x08643cd2   ROMCPU1
    $p     0x08643cda   ROMCPU1
    $d     0x08643ce0   ROMCPU1
    $t     0x08643cec   ROMCPU1
    $p     0x08643cf6   ROMCPU1
    $p     0x08643cfe   ROMCPU1
    $d     0x08643d04   ROMCPU1
    $t     0x08643d0c   ROMCPU1
    $p     0x08643d16   ROMCPU1
    $p     0x08643d1e   ROMCPU1
    $d     0x08643d24   ROMCPU1
    $t     0x08643d2c   ROMCPU1
    $d     0x08643d36   ROMCPU1
    $t     0x08643d3c   ROMCPU1
    $d     0x08643d46   ROMCPU1
    $t     0x08643d4c   ROMCPU1
    $b     0x08643d5c   ROMCPU1
    $d     0x08643d7c   ROMCPU1
    $t     0x08643d8e   ROMCPU1
    $p     0x08643d98   ROMCPU1
    $p     0x08643da2   ROMCPU1
    $p     0x08643db0   ROMCPU1
    $p     0x08643df4   ROMCPU1
    $p     0x08643e02   ROMCPU1
    $p     0x08643e44   ROMCPU1
    $p     0x08643e52   ROMCPU1
    $p     0x08643e94   ROMCPU1
    $p     0x08643ea2   ROMCPU1
    $p     0x08643f0a   ROMCPU1
    $p     0x08643f18   ROMCPU1
    $p     0x08643f62   ROMCPU1
    $p     0x08643f70   ROMCPU1
    $p     0x08643fb2   ROMCPU1
    $p     0x08643fc0   ROMCPU1
    $p     0x08644002   ROMCPU1
    $p     0x08644012   ROMCPU1
    $b     0x08644016   ROMCPU1
    $b     0x08644020   ROMCPU1
    $d     0x08644026   ROMCPU1
    $t     0x08644058   ROMCPU1
    $b     0x08644062   ROMCPU1
    $p     0x08644082   ROMCPU1
    $p     0x086440b0   ROMCPU1
    $p     0x086440c0   ROMCPU1
    $p     0x086440c8   ROMCPU1
    $p     0x086440d4   ROMCPU1
    $p     0x086440ea   ROMCPU1
    $p     0x086440f2   ROMCPU1
    $b     0x086440f6   ROMCPU1
    $b     0x08644100   ROMCPU1
    $d     0x08644106   ROMCPU1
    $t     0x08644120   ROMCPU1
    $b     0x086441ba   ROMCPU1
    $b     0x086441c4   ROMCPU1
    $d     0x086441ca   ROMCPU1
    $t     0x086441d0   ROMCPU1
    $p     0x08644242   ROMCPU1
    $b     0x08644246   ROMCPU1
    $b     0x08644250   ROMCPU1
    $b     0x08644254   ROMCPU1
    $d     0x0864425a   ROMCPU1
    $t     0x08644278   ROMCPU1
    $b     0x086442a0   ROMCPU1
    $b     0x086442bc   ROMCPU1
    $b     0x086442c8   ROMCPU1
    $d     0x086442d8   ROMCPU1
    $t     0x086442ec   ROMCPU1
    $d     0x0864434a   ROMCPU1
    $t     0x0864435c   ROMCPU1
    $d     0x08644392   ROMCPU1
    $t     0x086443a2   ROMCPU1
    $b     0x086443c8   ROMCPU1
    $p     0x086443d8   ROMCPU1
    $b     0x086443e0   ROMCPU1
    $b     0x086443ea   ROMCPU1
    $b     0x086443f2   ROMCPU1
    $b     0x08644402   ROMCPU1
    $b     0x0864440c   ROMCPU1
    $b     0x08644482   ROMCPU1
    $b     0x086444b0   ROMCPU1
    $b     0x086444d0   ROMCPU1
    $b     0x086444de   ROMCPU1
    $b     0x086444e6   ROMCPU1
    $b     0x086444f0   ROMCPU1
    $b     0x086444f6   ROMCPU1
    $b     0x08644504   ROMCPU1
    $b     0x08644510   ROMCPU1
    $b     0x08644514   ROMCPU1
    $b     0x08644536   ROMCPU1
    $b     0x08644562   ROMCPU1
    $p     0x08644574   ROMCPU1
    $b     0x08644580   ROMCPU1
    $p     0x08644592   ROMCPU1
    $b     0x086445a4   ROMCPU1
    $p     0x086445b6   ROMCPU1
    $b     0x086445c2   ROMCPU1
    $p     0x086445d4   ROMCPU1
    $b     0x086445f4   ROMCPU1
    $p     0x08644606   ROMCPU1
    $b     0x08644612   ROMCPU1
    $p     0x08644624   ROMCPU1
    $b     0x08644630   ROMCPU1
    $p     0x08644644   ROMCPU1
    $b     0x08644648   ROMCPU1
    $b     0x08644652   ROMCPU1
    $b     0x0864465a   ROMCPU1
    $p     0x0864466c   ROMCPU1
    $b     0x08644670   ROMCPU1
    $b     0x0864467a   ROMCPU1
    $b     0x08644682   ROMCPU1
    $p     0x08644694   ROMCPU1
    $d     0x08644698   ROMCPU1
    $t     0x086446bc   ROMCPU1
    $b     0x086446c6   ROMCPU1
    $p     0x086446d6   ROMCPU1
    $b     0x086446da   ROMCPU1
    $b     0x086446e4   ROMCPU1
    $b     0x086446ec   ROMCPU1
    $p     0x086446fc   ROMCPU1
    $b     0x08644700   ROMCPU1
    $b     0x0864470a   ROMCPU1
    $b     0x08644712   ROMCPU1
    $p     0x08644726   ROMCPU1
    $b     0x0864472a   ROMCPU1
    $b     0x08644738   ROMCPU1
    $b     0x08644744   ROMCPU1
    $d     0x0864474a   ROMCPU1
    $t     0x08644750   ROMCPU1
    $b     0x08644752   ROMCPU1
    $b     0x08644756   ROMCPU1
    $b     0x08644764   ROMCPU1
    $b     0x08644772   ROMCPU1
    $b     0x0864477c   ROMCPU1
    $b     0x08644788   ROMCPU1
    $b     0x08644794   ROMCPU1
    $b     0x0864479a   ROMCPU1
    $b     0x086447a4   ROMCPU1
    $p     0x086447b2   ROMCPU1
    $b     0x086447b6   ROMCPU1
    $b     0x086447c0   ROMCPU1
    $b     0x086447c8   ROMCPU1
    $b     0x086447d4   ROMCPU1
    $b     0x086449e0   ROMCPU1
    $b     0x086449ec   ROMCPU1
    $b     0x086449fa   ROMCPU1
    $p     0x08644a0a   ROMCPU1
    $b     0x08644a0e   ROMCPU1
    $b     0x08644a18   ROMCPU1
    $b     0x08644a22   ROMCPU1
    $b     0x08644a2e   ROMCPU1
    $b     0x08644a36   ROMCPU1
    $b     0x08644a42   ROMCPU1
    $p     0x08644a50   ROMCPU1
    $b     0x08644a54   ROMCPU1
    $b     0x08644a5e   ROMCPU1
    $b     0x08644a66   ROMCPU1
    $b     0x08644a72   ROMCPU1
    $b     0x08644a7c   ROMCPU1
    $b     0x08644a82   ROMCPU1
    $b     0x08644a8e   ROMCPU1
    $p     0x08644aa0   ROMCPU1
    $b     0x08644aa4   ROMCPU1
    $b     0x08644aae   ROMCPU1
    $b     0x08644abc   ROMCPU1
    $b     0x08644ac6   ROMCPU1
    $b     0x08644ace   ROMCPU1
    $b     0x08644ada   ROMCPU1
    $p     0x08644aea   ROMCPU1
    $b     0x08644aee   ROMCPU1
    $b     0x08644af8   ROMCPU1
    $b     0x08644b00   ROMCPU1
    $b     0x08644b0c   ROMCPU1
    $b     0x08644b12   ROMCPU1
    $b     0x08644b22   ROMCPU1
    $p     0x08644b30   ROMCPU1
    $b     0x08644b34   ROMCPU1
    $d     0x08644b3a   ROMCPU1
    $t     0x08644b90   ROMCPU1
    $b     0x08644b96   ROMCPU1
    $b     0x08644b9c   ROMCPU1
    $b     0x08644bac   ROMCPU1
    $p     0x08644bb6   ROMCPU1
    $b     0x08644bba   ROMCPU1
    $b     0x08644bc4   ROMCPU1
    $b     0x08644bc8   ROMCPU1
    $d     0x08644bdc   ROMCPU1
    $t     0x08644be8   ROMCPU1
    $b     0x08644bea   ROMCPU1
    $b     0x08644bee   ROMCPU1
    $b     0x08644c40   ROMCPU1
    $b     0x08644c4e   ROMCPU1
    $b     0x08644c58   ROMCPU1
    $b     0x08644c64   ROMCPU1
    $b     0x08644c70   ROMCPU1
    $b     0x08644c76   ROMCPU1
    $b     0x08644c80   ROMCPU1
    $p     0x08644c8e   ROMCPU1
    $b     0x08644c92   ROMCPU1
    $b     0x08644c9c   ROMCPU1
    $b     0x08644ca4   ROMCPU1
    $b     0x08644cb0   ROMCPU1
    $b     0x08644ebc   ROMCPU1
    $b     0x08644ec8   ROMCPU1
    $b     0x08644ed4   ROMCPU1
    $p     0x08644ee6   ROMCPU1
    $b     0x08644eea   ROMCPU1
    $b     0x08644ef4   ROMCPU1
    $b     0x08644efe   ROMCPU1
    $b     0x08644f0a   ROMCPU1
    $b     0x08644f12   ROMCPU1
    $b     0x08644f1e   ROMCPU1
    $p     0x08644f2e   ROMCPU1
    $b     0x08644f32   ROMCPU1
    $b     0x08644f3c   ROMCPU1
    $b     0x08644f44   ROMCPU1
    $b     0x08644f50   ROMCPU1
    $b     0x08644f5c   ROMCPU1
    $b     0x08644f64   ROMCPU1
    $b     0x08644f72   ROMCPU1
    $p     0x08644f82   ROMCPU1
    $b     0x08644f86   ROMCPU1
    $b     0x08644f90   ROMCPU1
    $b     0x08644f9e   ROMCPU1
    $b     0x08644faa   ROMCPU1
    $b     0x08644fb2   ROMCPU1
    $b     0x08644fbe   ROMCPU1
    $p     0x08644fce   ROMCPU1
    $d     0x08644fd2   ROMCPU1
    $t     0x08645028   ROMCPU1
    $b     0x0864502a   ROMCPU1
    $b     0x08645034   ROMCPU1
    $b     0x0864503a   ROMCPU1
    $b     0x08645044   ROMCPU1
    $b     0x0864504c   ROMCPU1
    $b     0x0864505e   ROMCPU1
    $p     0x0864506a   ROMCPU1
    $b     0x0864506e   ROMCPU1
    $b     0x08645078   ROMCPU1
    $b     0x0864507e   ROMCPU1
    $b     0x0864508e   ROMCPU1
    $p     0x0864509a   ROMCPU1
    $b     0x0864509e   ROMCPU1
    $b     0x086450a8   ROMCPU1
    $b     0x086450ac   ROMCPU1
    $d     0x086450bc   ROMCPU1
    $t     0x086450c8   ROMCPU1
    $b     0x086450e4   ROMCPU1
    $d     0x086450ea   ROMCPU1
    $t     0x086450f8   ROMCPU1
    $b     0x086450fa   ROMCPU1
    $b     0x086450fe   ROMCPU1
    $b     0x08645130   ROMCPU1
    $b     0x0864514c   ROMCPU1
    $b     0x0864516a   ROMCPU1
    $b     0x08645178   ROMCPU1
    $b     0x08645182   ROMCPU1
    $b     0x0864518e   ROMCPU1
    $b     0x0864519a   ROMCPU1
    $b     0x086451a0   ROMCPU1
    $b     0x086451aa   ROMCPU1
    $p     0x086451b8   ROMCPU1
    $b     0x086451bc   ROMCPU1
    $b     0x086451c6   ROMCPU1
    $b     0x086451ce   ROMCPU1
    $b     0x086451da   ROMCPU1
    $b     0x086453e6   ROMCPU1
    $b     0x086453f2   ROMCPU1
    $b     0x086453fe   ROMCPU1
    $p     0x08645410   ROMCPU1
    $b     0x08645414   ROMCPU1
    $b     0x0864541e   ROMCPU1
    $b     0x08645428   ROMCPU1
    $b     0x08645434   ROMCPU1
    $b     0x0864543c   ROMCPU1
    $b     0x08645448   ROMCPU1
    $p     0x08645458   ROMCPU1
    $b     0x0864545c   ROMCPU1
    $b     0x08645466   ROMCPU1
    $b     0x0864546e   ROMCPU1
    $b     0x0864547a   ROMCPU1
    $b     0x08645486   ROMCPU1
    $b     0x0864548e   ROMCPU1
    $b     0x0864549c   ROMCPU1
    $p     0x086454ac   ROMCPU1
    $b     0x086454b0   ROMCPU1
    $b     0x086454ba   ROMCPU1
    $b     0x086454c8   ROMCPU1
    $b     0x086454d4   ROMCPU1
    $b     0x086454dc   ROMCPU1
    $d     0x086454e2   ROMCPU1
    $t     0x08645538   ROMCPU1
    $b     0x0864553e   ROMCPU1
    $p     0x0864554e   ROMCPU1
    $b     0x08645552   ROMCPU1
    $b     0x0864555c   ROMCPU1
    $b     0x08645562   ROMCPU1
    $b     0x0864556c   ROMCPU1
    $b     0x08645574   ROMCPU1
    $b     0x08645584   ROMCPU1
    $p     0x08645592   ROMCPU1
    $b     0x08645596   ROMCPU1
    $b     0x086455a0   ROMCPU1
    $b     0x086455a6   ROMCPU1
    $b     0x086455b6   ROMCPU1
    $p     0x086455c2   ROMCPU1
    $b     0x086455c6   ROMCPU1
    $b     0x086455d0   ROMCPU1
    $b     0x086455d4   ROMCPU1
    $d     0x086455ea   ROMCPU1
    $t     0x08645600   ROMCPU1
    $b     0x08645614   ROMCPU1
    $d     0x0864561a   ROMCPU1
    $t     0x08645628   ROMCPU1
    $b     0x08645630   ROMCPU1
    $b     0x0864563e   ROMCPU1
    $b     0x0864564a   ROMCPU1
    $p     0x08645666   ROMCPU1
    $b     0x0864566a   ROMCPU1
    $b     0x08645674   ROMCPU1
    $d     0x0864567a   ROMCPU1
    $t     0x08645690   ROMCPU1
    $b     0x08645698   ROMCPU1
    $b     0x086456a6   ROMCPU1
    $b     0x086456b2   ROMCPU1
    $p     0x086456ce   ROMCPU1
    $b     0x086456d2   ROMCPU1
    $b     0x086456dc   ROMCPU1
    $d     0x086456e2   ROMCPU1
    $t     0x086456f8   ROMCPU1
    $d     0x08645a86   ROMCPU1
    $t     0x08645b88   ROMCPU1
    $d     0x08645f22   ROMCPU1
    $t     0x08646024   ROMCPU1
    $d     0x086463be   ROMCPU1
    $t     0x086464c0   ROMCPU1
    $d     0x08646572   ROMCPU1
    $t     0x086465a4   ROMCPU1
    $b     0x086465b2   ROMCPU1
    $p     0x086465cc   ROMCPU1
    $p     0x086465da   ROMCPU1
    $b     0x086465de   ROMCPU1
    $b     0x086465ea   ROMCPU1
    $b     0x086465f6   ROMCPU1
    $b     0x08646602   ROMCPU1
    $b     0x0864660e   ROMCPU1
    $b     0x0864661a   ROMCPU1
    $b     0x08646626   ROMCPU1
    $b     0x08646634   ROMCPU1
    $b     0x0864663c   ROMCPU1
    $b     0x08646644   ROMCPU1
    $b     0x0864664c   ROMCPU1
    $b     0x08646652   ROMCPU1
    $b     0x08646674   ROMCPU1
    $b     0x0864667a   ROMCPU1
    $b     0x08646684   ROMCPU1
    $b     0x0864668e   ROMCPU1
    $p     0x0864669a   ROMCPU1
    $b     0x0864669e   ROMCPU1
    $b     0x086466a4   ROMCPU1
    $b     0x086466ac   ROMCPU1
    $b     0x086466b8   ROMCPU1
    $b     0x086466c0   ROMCPU1
    $b     0x086466cc   ROMCPU1
    $b     0x086466d2   ROMCPU1
    $b     0x086466d8   ROMCPU1
    $b     0x086466e0   ROMCPU1
    $b     0x086466f0   ROMCPU1
    $b     0x086466fe   ROMCPU1
    $b     0x0864670a   ROMCPU1
    $p     0x08646722   ROMCPU1
    $b     0x08646726   ROMCPU1
    $b     0x08646730   ROMCPU1
    $b     0x08646738   ROMCPU1
    $b     0x0864674a   ROMCPU1
    $p     0x08646758   ROMCPU1
    $b     0x0864675c   ROMCPU1
    $b     0x08646766   ROMCPU1
    $b     0x0864676e   ROMCPU1
    $b     0x08646780   ROMCPU1
    $b     0x0864678e   ROMCPU1
    $b     0x0864679a   ROMCPU1
    $p     0x086467b2   ROMCPU1
    $b     0x086467b6   ROMCPU1
    $b     0x086467c0   ROMCPU1
    $b     0x086467d0   ROMCPU1
    $b     0x086467de   ROMCPU1
    $p     0x086467f0   ROMCPU1
    $b     0x086467f4   ROMCPU1
    $b     0x086467fe   ROMCPU1
    $b     0x08646808   ROMCPU1
    $b     0x08646814   ROMCPU1
    $p     0x08646826   ROMCPU1
    $b     0x0864682a   ROMCPU1
    $b     0x08646834   ROMCPU1
    $b     0x08646842   ROMCPU1
    $b     0x0864684c   ROMCPU1
    $b     0x08646856   ROMCPU1
    $b     0x08646866   ROMCPU1
    $b     0x0864686e   ROMCPU1
    $b     0x0864687a   ROMCPU1
    $p     0x0864688a   ROMCPU1
    $b     0x08646892   ROMCPU1
    $b     0x0864689c   ROMCPU1
    $b     0x086468a6   ROMCPU1
    $b     0x086468b2   ROMCPU1
    $b     0x086468ba   ROMCPU1
    $b     0x086468c6   ROMCPU1
    $p     0x086468d6   ROMCPU1
    $b     0x086468da   ROMCPU1
    $b     0x086468ea   ROMCPU1
    $p     0x086468f8   ROMCPU1
    $b     0x086468fc   ROMCPU1
    $b     0x08646906   ROMCPU1
    $b     0x0864690e   ROMCPU1
    $b     0x08646920   ROMCPU1
    $b     0x0864692e   ROMCPU1
    $b     0x0864693a   ROMCPU1
    $p     0x08646952   ROMCPU1
    $b     0x08646956   ROMCPU1
    $b     0x08646960   ROMCPU1
    $b     0x0864696e   ROMCPU1
    $b     0x0864697c   ROMCPU1
    $d     0x0864698e   ROMCPU1
    $t     0x086469c4   ROMCPU1
    $p     0x086469c6   ROMCPU1
    $b     0x086469ca   ROMCPU1
    $b     0x086469d4   ROMCPU1
    $b     0x086469e0   ROMCPU1
    $b     0x086469ec   ROMCPU1
    $p     0x08646a00   ROMCPU1
    $b     0x08646a04   ROMCPU1
    $b     0x08646a0e   ROMCPU1
    $b     0x08646a1a   ROMCPU1
    $b     0x08646a26   ROMCPU1
    $p     0x08646a36   ROMCPU1
    $b     0x08646a3a   ROMCPU1
    $b     0x08646a44   ROMCPU1
    $b     0x08646a50   ROMCPU1
    $b     0x08646a5c   ROMCPU1
    $p     0x08646a6c   ROMCPU1
    $b     0x08646a70   ROMCPU1
    $b     0x08646a7a   ROMCPU1
    $b     0x08646a86   ROMCPU1
    $b     0x08646a8c   ROMCPU1
    $b     0x08646a9c   ROMCPU1
    $p     0x08646aac   ROMCPU1
    $b     0x08646ab0   ROMCPU1
    $b     0x08646aba   ROMCPU1
    $b     0x08646ac8   ROMCPU1
    $b     0x08646ad2   ROMCPU1
    $b     0x08646adc   ROMCPU1
    $b     0x08646ae8   ROMCPU1
    $b     0x08646aee   ROMCPU1
    $b     0x08646af8   ROMCPU1
    $p     0x08646b08   ROMCPU1
    $b     0x08646b0c   ROMCPU1
    $b     0x08646b16   ROMCPU1
    $b     0x08646b1e   ROMCPU1
    $b     0x08646b2a   ROMCPU1
    $b     0x08646b34   ROMCPU1
    $b     0x08646b3e   ROMCPU1
    $b     0x08646b48   ROMCPU1
    $b     0x08646b54   ROMCPU1
    $b     0x08646b5c   ROMCPU1
    $b     0x08646b68   ROMCPU1
    $p     0x08646b78   ROMCPU1
    $b     0x08646b7c   ROMCPU1
    $b     0x08646b86   ROMCPU1
    $b     0x08646b8e   ROMCPU1
    $b     0x08646b9a   ROMCPU1
    $b     0x08646ba4   ROMCPU1
    $b     0x08646bae   ROMCPU1
    $b     0x08646bb8   ROMCPU1
    $b     0x08646bc4   ROMCPU1
    $b     0x08646bcc   ROMCPU1
    $b     0x08646bd8   ROMCPU1
    $p     0x08646be8   ROMCPU1
    $b     0x08646bec   ROMCPU1
    $b     0x08646bf6   ROMCPU1
    $b     0x08646bfe   ROMCPU1
    $b     0x08646c0a   ROMCPU1
    $b     0x08646c14   ROMCPU1
    $b     0x08646c1e   ROMCPU1
    $b     0x08646c28   ROMCPU1
    $b     0x08646c34   ROMCPU1
    $b     0x08646c3c   ROMCPU1
    $b     0x08646c48   ROMCPU1
    $p     0x08646c58   ROMCPU1
    $b     0x08646c5c   ROMCPU1
    $b     0x08646c66   ROMCPU1
    $b     0x08646c6e   ROMCPU1
    $b     0x08646c7a   ROMCPU1
    $b     0x08646c84   ROMCPU1
    $b     0x08646c8e   ROMCPU1
    $b     0x08646c9a   ROMCPU1
    $b     0x08646caa   ROMCPU1
    $b     0x08646cc8   ROMCPU1
    $b     0x08646cd4   ROMCPU1
    $p     0x08646ce4   ROMCPU1
    $b     0x08646ce8   ROMCPU1
    $b     0x08646cf2   ROMCPU1
    $b     0x08646cfa   ROMCPU1
    $b     0x08646d06   ROMCPU1
    $b     0x08646d0c   ROMCPU1
    $b     0x08646d1c   ROMCPU1
    $p     0x08646d28   ROMCPU1
    $b     0x08646d2c   ROMCPU1
    $b     0x08646d38   ROMCPU1
    $b     0x08646d44   ROMCPU1
    $b     0x08646d52   ROMCPU1
    $b     0x08646d5e   ROMCPU1
    $b     0x08646d6c   ROMCPU1
    $b     0x08646d96   ROMCPU1
    $b     0x08646da0   ROMCPU1
    $p     0x08646db0   ROMCPU1
    $d     0x08646db6   ROMCPU1
    $b     0x08646de4   ROMCPU1
    $t     0x08646de4   ROMCPU1
    $b     0x08646dee   ROMCPU1
    $b     0x08646df4   ROMCPU1
    $b     0x08646dfe   ROMCPU1
    $b     0x08646e08   ROMCPU1
    $b     0x08646e12   ROMCPU1
    $b     0x08646e1e   ROMCPU1
    $b     0x08646e2c   ROMCPU1
    $b     0x08646e94   ROMCPU1
    $b     0x08646e9e   ROMCPU1
    $p     0x08646eae   ROMCPU1
    $b     0x08646eb2   ROMCPU1
    $b     0x08646ebc   ROMCPU1
    $b     0x08646ec2   ROMCPU1
    $b     0x08646ecc   ROMCPU1
    $b     0x08646ed6   ROMCPU1
    $b     0x08646ee0   ROMCPU1
    $b     0x08646eec   ROMCPU1
    $b     0x08646efa   ROMCPU1
    $b     0x08646f14   ROMCPU1
    $b     0x08646f20   ROMCPU1
    $b     0x08646f2c   ROMCPU1
    $p     0x08646f3c   ROMCPU1
    $b     0x08646f40   ROMCPU1
    $b     0x08646f4a   ROMCPU1
    $b     0x08646f50   ROMCPU1
    $b     0x08646f5a   ROMCPU1
    $b     0x08646f64   ROMCPU1
    $b     0x08646f6e   ROMCPU1
    $b     0x08646f7a   ROMCPU1
    $b     0x08646f88   ROMCPU1
    $b     0x08646fba   ROMCPU1
    $b     0x08646fc6   ROMCPU1
    $p     0x08646fd6   ROMCPU1
    $b     0x08646fda   ROMCPU1
    $b     0x08646fe4   ROMCPU1
    $b     0x08646fea   ROMCPU1
    $b     0x08646ff4   ROMCPU1
    $b     0x08646ffe   ROMCPU1
    $b     0x08647008   ROMCPU1
    $b     0x08647014   ROMCPU1
    $b     0x08647022   ROMCPU1
    $b     0x0864703e   ROMCPU1
    $b     0x0864704a   ROMCPU1
    $p     0x0864705a   ROMCPU1
    $b     0x0864705e   ROMCPU1
    $b     0x08647068   ROMCPU1
    $b     0x0864706e   ROMCPU1
    $b     0x08647078   ROMCPU1
    $b     0x08647080   ROMCPU1
    $b     0x08647090   ROMCPU1
    $p     0x0864709c   ROMCPU1
    $b     0x086470a0   ROMCPU1
    $b     0x086470aa   ROMCPU1
    $b     0x086470b6   ROMCPU1
    $b     0x086470ba   ROMCPU1
    $b     0x086470be   ROMCPU1
    $b     0x086470c8   ROMCPU1
    $b     0x08647102   ROMCPU1
    $b     0x0864710c   ROMCPU1
    $b     0x08647124   ROMCPU1
    $b     0x08647138   ROMCPU1
    $d     0x0864713c   ROMCPU1
    $t     0x0864714a   ROMCPU1
    $p     0x08647158   ROMCPU1
    $b     0x0864715c   ROMCPU1
    $b     0x0864716c   ROMCPU1
    $b     0x08647174   ROMCPU1
    $b     0x08647180   ROMCPU1
    $p     0x08647196   ROMCPU1
    $b     0x0864719a   ROMCPU1
    $b     0x086471a4   ROMCPU1
    $d     0x086471ce   ROMCPU1
    $t     0x086471fc   ROMCPU1
    $b     0x0864723c   ROMCPU1
    $b     0x0864725a   ROMCPU1
    $p     0x0864726a   ROMCPU1
    $p     0x0864727c   ROMCPU1
    $b     0x08647282   ROMCPU1
    $b     0x0864728c   ROMCPU1
    $b     0x08647296   ROMCPU1
    $b     0x086472a0   ROMCPU1
    $b     0x086472ba   ROMCPU1
    $b     0x086472c6   ROMCPU1
    $b     0x086472d2   ROMCPU1
    $b     0x086472d8   ROMCPU1
    $b     0x086472e2   ROMCPU1
    $b     0x086472f4   ROMCPU1
    $b     0x0864730e   ROMCPU1
    $b     0x086473ae   ROMCPU1
    $b     0x086473ba   ROMCPU1
    $b     0x086473be   ROMCPU1
    $b     0x086473d0   ROMCPU1
    $b     0x086473de   ROMCPU1
    $b     0x086473ea   ROMCPU1
    $b     0x086473fa   ROMCPU1
    $b     0x08647412   ROMCPU1
    $b     0x08647424   ROMCPU1
    $b     0x08647430   ROMCPU1
    $b     0x0864743c   ROMCPU1
    $b     0x08647458   ROMCPU1
    $b     0x08647464   ROMCPU1
    $b     0x08647470   ROMCPU1
    $b     0x0864747c   ROMCPU1
    $b     0x08647488   ROMCPU1
    $b     0x08647494   ROMCPU1
    $b     0x0864749e   ROMCPU1
    $b     0x086474b0   ROMCPU1
    $b     0x086474ba   ROMCPU1
    $b     0x086474c4   ROMCPU1
    $b     0x086474cc   ROMCPU1
    $b     0x086474d2   ROMCPU1
    $p     0x08647500   ROMCPU1
    $b     0x08647504   ROMCPU1
    $b     0x0864750e   ROMCPU1
    $b     0x0864752a   ROMCPU1
    $b     0x0864757a   ROMCPU1
    $b     0x08647584   ROMCPU1
    $b     0x086475aa   ROMCPU1
    $b     0x086475b0   ROMCPU1
    $b     0x086475c6   ROMCPU1
    $b     0x086475da   ROMCPU1
    $b     0x086475ee   ROMCPU1
    $b     0x086475fe   ROMCPU1
    $p     0x08647610   ROMCPU1
    $d     0x08647616   ROMCPU1
    $f     0x0864763c   ROMCPU1
    $b     0x08647640   ROMCPU1
    $t     0x08647640   ROMCPU1
    $b     0x0864764a   ROMCPU1
    $b     0x0864765a   ROMCPU1
    $b     0x0864765e   ROMCPU1
    $b     0x08647670   ROMCPU1
    $b     0x0864767a   ROMCPU1
    $b     0x0864768a   ROMCPU1
    $b     0x08647690   ROMCPU1
    $b     0x086476ac   ROMCPU1
    $b     0x086476b8   ROMCPU1
    $b     0x086476ca   ROMCPU1
    $b     0x086476dc   ROMCPU1
    $b     0x086476e0   ROMCPU1
    $b     0x086476f6   ROMCPU1
    $b     0x086476fe   ROMCPU1
    $b     0x08647702   ROMCPU1
    $b     0x08647708   ROMCPU1
    $b     0x0864771a   ROMCPU1
    $b     0x08647724   ROMCPU1
    $b     0x0864772c   ROMCPU1
    $b     0x08647738   ROMCPU1
    $p     0x08647748   ROMCPU1
    $p     0x08647758   ROMCPU1
    $b     0x08647760   ROMCPU1
    $b     0x08647768   ROMCPU1
    $p     0x08647776   ROMCPU1
    $b     0x0864778a   ROMCPU1
    $b     0x08647792   ROMCPU1
    $b     0x086477a6   ROMCPU1
    $b     0x086477b0   ROMCPU1
    $b     0x086477c4   ROMCPU1
    $b     0x086477ca   ROMCPU1
    $p     0x086477e0   ROMCPU1
    $b     0x086477e8   ROMCPU1
    $b     0x086477f4   ROMCPU1
    $p     0x08647808   ROMCPU1
    $p     0x08647816   ROMCPU1
    $b     0x0864781e   ROMCPU1
    $b     0x08647828   ROMCPU1
    $b     0x08647840   ROMCPU1
    $b     0x08647848   ROMCPU1
    $b     0x0864785c   ROMCPU1
    $b     0x08647866   ROMCPU1
    $b     0x0864787a   ROMCPU1
    $b     0x08647880   ROMCPU1
    $p     0x08647896   ROMCPU1
    $p     0x086478a0   ROMCPU1
    $b     0x086478a4   ROMCPU1
    $b     0x086478a8   ROMCPU1
    $b     0x086478b6   ROMCPU1
    $d     0x086478bc   ROMCPU1
    $f     0x086478c4   ROMCPU1
    $t     0x086478d8   ROMCPU1
    $b     0x086478e2   ROMCPU1
    $b     0x086478ea   ROMCPU1
    $p     0x08647902   ROMCPU1
    $b     0x0864790a   ROMCPU1
    $p     0x08647916   ROMCPU1
    $b     0x0864791c   ROMCPU1
    $p     0x08647928   ROMCPU1
    $b     0x0864792a   ROMCPU1
    $d     0x08647932   ROMCPU1
    $t     0x08647940   ROMCPU1
    $b     0x08647942   ROMCPU1
    $b     0x08647950   ROMCPU1
    $b     0x08647956   ROMCPU1
    $b     0x08647966   ROMCPU1
    $p     0x08647978   ROMCPU1
    $b     0x0864797c   ROMCPU1
    $b     0x08647986   ROMCPU1
    $b     0x08647994   ROMCPU1
    $b     0x0864799e   ROMCPU1
    $b     0x086479a8   ROMCPU1
    $b     0x086479b4   ROMCPU1
    $b     0x086479d4   ROMCPU1
    $b     0x086479e0   ROMCPU1
    $p     0x086479ee   ROMCPU1
    $b     0x086479f2   ROMCPU1
    $b     0x086479fc   ROMCPU1
    $b     0x08647a04   ROMCPU1
    $b     0x08647a10   ROMCPU1
    $b     0x08647a18   ROMCPU1
    $b     0x08647a28   ROMCPU1
    $p     0x08647a34   ROMCPU1
    $b     0x08647a38   ROMCPU1
    $b     0x08647a42   ROMCPU1
    $b     0x08647a48   ROMCPU1
    $b     0x08647a54   ROMCPU1
    $d     0x08647a5a   ROMCPU1
    $t     0x08647a70   ROMCPU1
    $b     0x08647a72   ROMCPU1
    $b     0x08647a80   ROMCPU1
    $b     0x08647a8e   ROMCPU1
    $p     0x08647aa0   ROMCPU1
    $b     0x08647aa4   ROMCPU1
    $b     0x08647aae   ROMCPU1
    $b     0x08647abc   ROMCPU1
    $b     0x08647ac6   ROMCPU1
    $b     0x08647ad2   ROMCPU1
    $b     0x08647ae0   ROMCPU1
    $b     0x08647b10   ROMCPU1
    $b     0x08647b1c   ROMCPU1
    $p     0x08647b2a   ROMCPU1
    $b     0x08647b2e   ROMCPU1
    $b     0x08647b38   ROMCPU1
    $b     0x08647b40   ROMCPU1
    $b     0x08647b4c   ROMCPU1
    $b     0x08647b54   ROMCPU1
    $b     0x08647b66   ROMCPU1
    $p     0x08647b72   ROMCPU1
    $b     0x08647b76   ROMCPU1
    $b     0x08647b80   ROMCPU1
    $d     0x08647b86   ROMCPU1
    $t     0x08647b9c   ROMCPU1
    $b     0x08647b9e   ROMCPU1
    $b     0x08647bac   ROMCPU1
    $b     0x08647bb8   ROMCPU1
    $p     0x08647bca   ROMCPU1
    $b     0x08647bce   ROMCPU1
    $b     0x08647bd8   ROMCPU1
    $b     0x08647be6   ROMCPU1
    $b     0x08647bf0   ROMCPU1
    $b     0x08647bfa   ROMCPU1
    $b     0x08647c06   ROMCPU1
    $b     0x08647c20   ROMCPU1
    $b     0x08647c2c   ROMCPU1
    $b     0x08647c38   ROMCPU1
    $p     0x08647c46   ROMCPU1
    $b     0x08647c4a   ROMCPU1
    $b     0x08647c54   ROMCPU1
    $b     0x08647c5c   ROMCPU1
    $b     0x08647c68   ROMCPU1
    $b     0x08647c6e   ROMCPU1
    $b     0x08647c7e   ROMCPU1
    $p     0x08647c8a   ROMCPU1
    $b     0x08647c8e   ROMCPU1
    $b     0x08647c98   ROMCPU1
    $d     0x08647c9e   ROMCPU1
    $t     0x08647cbc   ROMCPU1
    $b     0x08647cbe   ROMCPU1
    $b     0x08647ccc   ROMCPU1
    $b     0x08647cda   ROMCPU1
    $p     0x08647cea   ROMCPU1
    $b     0x08647cee   ROMCPU1
    $b     0x08647cf8   ROMCPU1
    $b     0x08647d04   ROMCPU1
    $b     0x08647d10   ROMCPU1
    $p     0x08647d1e   ROMCPU1
    $b     0x08647d22   ROMCPU1
    $b     0x08647d2c   ROMCPU1
    $b     0x08647d38   ROMCPU1
    $b     0x08647d44   ROMCPU1
    $p     0x08647d52   ROMCPU1
    $b     0x08647d56   ROMCPU1
    $b     0x08647d60   ROMCPU1
    $b     0x08647d6e   ROMCPU1
    $b     0x08647d78   ROMCPU1
    $b     0x08647d82   ROMCPU1
    $b     0x08647d8e   ROMCPU1
    $b     0x08647db6   ROMCPU1
    $b     0x08647dc0   ROMCPU1
    $p     0x08647dd0   ROMCPU1
    $b     0x08647dd4   ROMCPU1
    $b     0x08647dde   ROMCPU1
    $b     0x08647de6   ROMCPU1
    $b     0x08647df2   ROMCPU1
    $b     0x08647dfc   ROMCPU1
    $b     0x08647e06   ROMCPU1
    $b     0x08647e10   ROMCPU1
    $b     0x08647e1c   ROMCPU1
    $b     0x08647e80   ROMCPU1
    $b     0x08647e8c   ROMCPU1
    $p     0x08647e9c   ROMCPU1
    $b     0x08647ea0   ROMCPU1
    $b     0x08647eaa   ROMCPU1
    $b     0x08647eb2   ROMCPU1
    $b     0x08647ebe   ROMCPU1
    $b     0x08647ec8   ROMCPU1
    $b     0x08647ed2   ROMCPU1
    $b     0x08647edc   ROMCPU1
    $b     0x08647ee8   ROMCPU1
    $b     0x08647f00   ROMCPU1
    $b     0x08647f0c   ROMCPU1
    $b     0x08647f18   ROMCPU1
    $p     0x08647f28   ROMCPU1
    $b     0x08647f2c   ROMCPU1
    $b     0x08647f36   ROMCPU1
    $b     0x08647f3e   ROMCPU1
    $b     0x08647f4a   ROMCPU1
    $b     0x08647f50   ROMCPU1
    $b     0x08647f5e   ROMCPU1
    $p     0x08647f6c   ROMCPU1
    $b     0x08647f70   ROMCPU1
    $b     0x08647f7a   ROMCPU1
    $b     0x08647f80   ROMCPU1
    $b     0x08647f8c   ROMCPU1
    $d     0x08647f92   ROMCPU1
    $t     0x08647fc4   ROMCPU1
    $d     0x086482f2   ROMCPU1
    $t     0x08648304   ROMCPU1
    $d     0x086483a4   ROMCPU1
    $t     0x086483ae   ROMCPU1
    $b     0x0864840a   ROMCPU1
    $b     0x08648428   ROMCPU1
    $b     0x08648430   ROMCPU1
    $b     0x0864843a   ROMCPU1
    $b     0x08648452   ROMCPU1
    $b     0x0864845c   ROMCPU1
    $b     0x08648468   ROMCPU1
    $d     0x086486c4   ROMCPU1
    $t     0x086486d4   ROMCPU1
    $d     0x0864889a   ROMCPU1
    $t     0x086488a4   ROMCPU1
    $a     0x086488ac   ROMCPU1
    $d     0x08648918   ROMCPU1
    $f     0x08648918   ROMCPU1
    $a     0x0864891c   ROMCPU1
    $d     0x08648930   ROMCPU1
    $f     0x08648944   ROMCPU1
    $d     0x08648948   ROMCPU1

    Local Symbols

    Symbol Name                              Value     Ov Type        Size  Object(Section)

    image2dlms.s                             0x00000000   Number         0  image2dlms.o ABSOLUTE
    <Anonymous Symbol>                       0x00000000   Data          88  image2dlms.o(.debug_line)
    init                                     0x086488ac   ARM Code     156  image2dlms.o(init)
    <Anonymous Symbol>                       0x00000000   Data          16  image2dlms.o(.debug_abbrev)
    <Anonymous Symbol>                       0x00000000   Data          88  image2dlms.o(.debug_info)
    copy                                     0x086488e4   ARM Code       0  image2dlms.o(init)
    zi_init                                  0x086488f8   ARM Code       0  image2dlms.o(init)
    zi_init_loop                             0x086488fc   ARM Code       0  image2dlms.o(init)
    DummyLabel                               0x0864891c   ARM Code       0  image2dlms.o(init)
    Label                                    0x08648928   ARM Code       0  image2dlms.o(init)
    ql_func.c                                0x00000000   Number         0  ql_func.o ABSOLUTE
    i.Ql_FileDelete                          0x08641ee4   Thumb Code     0  ql_func.o(i.Ql_FileDelete)
    i.Ql_FileRename                          0x086420c8   Thumb Code     0  ql_func.o(i.Ql_FileRename)
    i.Ql_FileFindClose                       0x08641f0c   Thumb Code     0  ql_func.o(i.Ql_FileFindClose)
    i.Ql_FileSys_GetSpaceInfo                0x08642118   Thumb Code     0  ql_func.o(i.Ql_FileSys_GetSpaceInfo)
    i.Ql_FileFindFirst                       0x08641f30   Thumb Code     0  ql_func.o(i.Ql_FileFindFirst)
    i.Ql_FileFindNext                        0x08641f60   Thumb Code     0  ql_func.o(i.Ql_FileFindNext)
    i.Ql_FileSeek                            0x086420f0   Thumb Code     0  ql_func.o(i.Ql_FileSeek)
    i.Ql_FileGetFilePosition                 0x08641fb4   Thumb Code     0  ql_func.o(i.Ql_FileGetFilePosition)
    i.Ql_FileGetFreeSize                     0x08641fdc   Thumb Code     0  ql_func.o(i.Ql_FileGetFreeSize)
    i.Ql_FileGetSize                         0x08642000   Thumb Code     0  ql_func.o(i.Ql_FileGetSize)
    i.Ql_FileOpen                            0x08642028   Thumb Code     0  ql_func.o(i.Ql_FileOpen)
    i.Ql_FileOpenEx                          0x08642050   Thumb Code     0  ql_func.o(i.Ql_FileOpenEx)
    i.Ql_FileRead                            0x08642078   Thumb Code     0  ql_func.o(i.Ql_FileRead)
    i.Ql_FileRemoveDir                       0x086420a0   Thumb Code     0  ql_func.o(i.Ql_FileRemoveDir)
    i.Ql_Fota_Update                         0x086422c8   Thumb Code     0  ql_func.o(i.Ql_Fota_Update)
    i.Ql_FreeMemory                          0x086422f4   Thumb Code     0  ql_func.o(i.Ql_FreeMemory)
    i.Ql_GSM_GetIMEI                         0x08642318   Thumb Code     0  ql_func.o(i.Ql_GSM_GetIMEI)
    i.Ql_GetCallCntByType                    0x08642344   Thumb Code     0  ql_func.o(i.Ql_GetCallCntByType)
    i.Ql_GetCoreVer                          0x0864236c   Thumb Code     0  ql_func.o(i.Ql_GetCoreVer)
    i.Ql_FileFlush                           0x08641f90   Thumb Code     0  ql_func.o(i.Ql_FileFlush)
    i.Ql_GetDnsServerAddress                 0x086423c4   Thumb Code     0  ql_func.o(i.Ql_GetDnsServerAddress)
    i.Ql_GetEvent                            0x086423f0   Thumb Code     0  ql_func.o(i.Ql_GetEvent)
    i.Ql_GetHostIpbyName                     0x08642410   Thumb Code     0  ql_func.o(i.Ql_GetHostIpbyName)
    i.Ql_GetInfoCentreNum                    0x08642450   Thumb Code     0  ql_func.o(i.Ql_GetInfoCentreNum)
    i.Ql_GetLastErrorCode                    0x0864247c   Thumb Code     0  ql_func.o(i.Ql_GetLastErrorCode)
    i.Ql_GetLocalIpAddress                   0x086424a4   Thumb Code     0  ql_func.o(i.Ql_GetLocalIpAddress)
    i.Ql_GetLocalTime                        0x086424d0   Thumb Code     0  ql_func.o(i.Ql_GetLocalTime)
    i.Ql_GetMemory                           0x086424f8   Thumb Code     0  ql_func.o(i.Ql_GetMemory)
    i.Ql_GetMicGain                          0x08642518   Thumb Code     0  ql_func.o(i.Ql_GetMicGain)
    i.Ql_GetOperator                         0x08642544   Thumb Code     0  ql_func.o(i.Ql_GetOperator)
    i.Ql_GetPowerOnReason                    0x08642570   Thumb Code     0  ql_func.o(i.Ql_GetPowerOnReason)
    i.Ql_GetRelativeTime                     0x08642590   Thumb Code     0  ql_func.o(i.Ql_GetRelativeTime)
    i.Ql_GetDeviceCurrentRunState            0x08642398   Thumb Code     0  ql_func.o(i.Ql_GetDeviceCurrentRunState)
    i.Ql_GetSDKVer                           0x086425e8   Thumb Code     0  ql_func.o(i.Ql_GetSDKVer)
    i.Ql_GetSMSFormat                        0x08642620   Thumb Code     0  ql_func.o(i.Ql_GetSMSFormat)
    i.Ql_GetSideToneGain                     0x08642648   Thumb Code     0  ql_func.o(i.Ql_GetSideToneGain)
    i.Ql_GetVolume                           0x08642674   Thumb Code     0  ql_func.o(i.Ql_GetVolume)
    i.Ql_GprsAPNGet                          0x086426a0   Thumb Code     0  ql_func.o(i.Ql_GprsAPNGet)
    i.Ql_GprsAPNSet                          0x086426cc   Thumb Code     0  ql_func.o(i.Ql_GprsAPNSet)
    i.Ql_GprsNetworkActive                   0x08642700   Thumb Code     0  ql_func.o(i.Ql_GprsNetworkActive)
    i.Ql_GprsNetworkDeactive                 0x0864272c   Thumb Code     0  ql_func.o(i.Ql_GprsNetworkDeactive)
    i.Ql_GprsNetworkGetState                 0x08642758   Thumb Code     0  ql_func.o(i.Ql_GprsNetworkGetState)
    i.Ql_GprsNetworkInitialize               0x08642784   Thumb Code     0  ql_func.o(i.Ql_GprsNetworkInitialize)
    i.Ql_GprsNetworkUnInitialize             0x086427b0   Thumb Code     0  ql_func.o(i.Ql_GprsNetworkUnInitialize)
    i.Ql_FileTruncate                        0x08642140   Thumb Code     0  ql_func.o(i.Ql_FileTruncate)
    i.Ql_GetRelativeTime_Counter             0x086425c0   Thumb Code     0  ql_func.o(i.Ql_GetRelativeTime_Counter)
    i.Ql_FileXDelete                         0x08642190   Thumb Code     0  ql_func.o(i.Ql_FileXDelete)
    i.Ql_FileXMove                           0x086421b8   Thumb Code     0  ql_func.o(i.Ql_FileXMove)
    i.Ql_Fota_App_Finish                     0x086421e0   Thumb Code     0  ql_func.o(i.Ql_Fota_App_Finish)
    i.Ql_Fota_App_Init                       0x08642204   Thumb Code     0  ql_func.o(i.Ql_Fota_App_Init)
    i.Ql_Fota_App_Write_Data                 0x08642228   Thumb Code     0  ql_func.o(i.Ql_Fota_App_Write_Data)
    i.Ql_Fota_Core_Finish                    0x08642254   Thumb Code     0  ql_func.o(i.Ql_Fota_Core_Finish)
    i.Ql_Fota_Core_Init                      0x08642278   Thumb Code     0  ql_func.o(i.Ql_Fota_Core_Init)
    i.Ql_Fota_Core_Write_Data                0x0864229c   Thumb Code     0  ql_func.o(i.Ql_Fota_Core_Write_Data)
    i.Ql_ReadSMS                             0x0864296c   Thumb Code     0  ql_func.o(i.Ql_ReadSMS)
    i.Ql_ReadSMSList                         0x08642998   Thumb Code     0  ql_func.o(i.Ql_ReadSMSList)
    i.Ql_Reset                               0x086429c4   Thumb Code     0  ql_func.o(i.Ql_Reset)
    i.Ql_RetrieveNodeBInfo                   0x086429e4   Thumb Code     0  ql_func.o(i.Ql_RetrieveNodeBInfo)
    i.Ql_SIM_GetIMSI                         0x08642a10   Thumb Code     0  ql_func.o(i.Ql_SIM_GetIMSI)
    i.Ql_SMSInitialize                       0x08642a3c   Thumb Code     0  ql_func.o(i.Ql_SMSInitialize)
    i.Ql_SMSUnInitialize                     0x08642a60   Thumb Code     0  ql_func.o(i.Ql_SMSUnInitialize)
    i.Ql_SecondToTicks                       0x08642a84   Thumb Code     0  ql_func.o(i.Ql_SecondToTicks)
    i.Ql_SendPDUSMS                          0x08642aac   Thumb Code     0  ql_func.o(i.Ql_SendPDUSMS)
    i.Ql_SendTextSMS                         0x08642ad8   Thumb Code     0  ql_func.o(i.Ql_SendTextSMS)
    i.Ql_SendToModem                         0x08642b04   Thumb Code     0  ql_func.o(i.Ql_SendToModem)
    i.Ql_SendToUart                          0x08642b30   Thumb Code     0  ql_func.o(i.Ql_SendToUart)
    i.Ql_SetDebugMode                        0x08642b5c   Thumb Code     0  ql_func.o(i.Ql_SetDebugMode)
    i.Ql_SetDnsServerAddress                 0x08642b7c   Thumb Code     0  ql_func.o(i.Ql_SetDnsServerAddress)
    i.Ql_SetInfoCentreNum                    0x08642bb0   Thumb Code     0  ql_func.o(i.Ql_SetInfoCentreNum)
    i.Ql_SetLastErrorCode                    0x08642bdc   Thumb Code     0  ql_func.o(i.Ql_SetLastErrorCode)
    i.Ql_SetLocalTime                        0x08642c04   Thumb Code     0  ql_func.o(i.Ql_SetLocalTime)
    i.Ql_SetMicGain                          0x08642c2c   Thumb Code     0  ql_func.o(i.Ql_SetMicGain)
    i.Ql_SetNewSMSCallBack                   0x08642c58   Thumb Code     0  ql_func.o(i.Ql_SetNewSMSCallBack)
    i.Ql_SetPortOwner                        0x08642c7c   Thumb Code     0  ql_func.o(i.Ql_SetPortOwner)
    i.Ql_SetPortRts                          0x08642ca8   Thumb Code     0  ql_func.o(i.Ql_SetPortRts)
    i.Ql_SetSMSFormat                        0x08642ccc   Thumb Code     0  ql_func.o(i.Ql_SetSMSFormat)
    i.Ql_SetSMSStorage                       0x08642cf8   Thumb Code     0  ql_func.o(i.Ql_SetSMSStorage)
    i.Ql_SetSideToneGain                     0x08642d24   Thumb Code     0  ql_func.o(i.Ql_SetSideToneGain)
    i.Ql_SetUartBaudRate                     0x08642d50   Thumb Code     0  ql_func.o(i.Ql_SetUartBaudRate)
    i.Ql_SetUartDCBConfig                    0x08642d7c   Thumb Code     0  ql_func.o(i.Ql_SetUartDCBConfig)
    i.Ql_SetUartFlowCtrl                     0x08642db0   Thumb Code     0  ql_func.o(i.Ql_SetUartFlowCtrl)
    i.Ql_SetVolume                           0x08642dd4   Thumb Code     0  ql_func.o(i.Ql_SetVolume)
    i.Ql_SetVolume_Ex                        0x08642e00   Thumb Code     0  ql_func.o(i.Ql_SetVolume_Ex)
    i.Ql_Sleep                               0x08642e2c   Thumb Code     0  ql_func.o(i.Ql_Sleep)
    i.Ql_SocketAccept                        0x08642e4c   Thumb Code     0  ql_func.o(i.Ql_SocketAccept)
    i.Ql_FileWrite                           0x08642168   Thumb Code     0  ql_func.o(i.Ql_FileWrite)
    i.Ql_Mktime                              0x0864282c   Thumb Code     0  ql_func.o(i.Ql_Mktime)
    i.Ql_OpenModemPort                       0x08642854   Thumb Code     0  ql_func.o(i.Ql_OpenModemPort)
    i.Ql_PlayAudio                           0x0864287c   Thumb Code     0  ql_func.o(i.Ql_PlayAudio)
    i.Ql_PlayAudioFile_8k                    0x086428a8   Thumb Code     0  ql_func.o(i.Ql_PlayAudioFile_8k)
    i.Ql_PowerDown                           0x086428dc   Thumb Code     0  ql_func.o(i.Ql_PowerDown)
    i.Ql_SocketHtons                         0x08642f74   Thumb Code     0  ql_func.o(i.Ql_SocketHtons)
    i.Ql_SocketListen                        0x08642f9c   Thumb Code     0  ql_func.o(i.Ql_SocketListen)
    i.Ql_SocketRecv                          0x08642fc8   Thumb Code     0  ql_func.o(i.Ql_SocketRecv)
    i.Ql_SocketRecvFrom                      0x08642ff4   Thumb Code     0  ql_func.o(i.Ql_SocketRecvFrom)
    i.Ql_SocketSend                          0x08643028   Thumb Code     0  ql_func.o(i.Ql_SocketSend)
    i.Ql_SocketSendTo                        0x08643054   Thumb Code     0  ql_func.o(i.Ql_SocketSendTo)
    i.Ql_SocketSetRecvBufferSize             0x08643088   Thumb Code     0  ql_func.o(i.Ql_SocketSetRecvBufferSize)
    i.Ql_Call_Answer                         0x08641cec   Thumb Code     0  ql_func.o(i.Ql_Call_Answer)
    i.Ql_Call_Dial                           0x08641d18   Thumb Code     0  ql_func.o(i.Ql_Call_Dial)
    i.Ql_Call_Hangup                         0x08641d44   Thumb Code     0  ql_func.o(i.Ql_Call_Hangup)
    i.Ql_Call_Initialize                     0x08641d70   Thumb Code     0  ql_func.o(i.Ql_Call_Initialize)
    i.Ql_ConvertCodec                        0x08641d9c   Thumb Code     0  ql_func.o(i.Ql_ConvertCodec)
    i.Ql_CtrlEchoCancel                      0x08641dc8   Thumb Code     0  ql_func.o(i.Ql_CtrlEchoCancel)
    i.Ql_DeleteSMS                           0x08641dfc   Thumb Code     0  ql_func.o(i.Ql_DeleteSMS)
    i.Ql_FeedWatchdog                        0x08641e28   Thumb Code     0  ql_func.o(i.Ql_FeedWatchdog)
    i.Ql_FileCheck                           0x08641e48   Thumb Code     0  ql_func.o(i.Ql_FileCheck)
    i.Ql_FileCheckDir                        0x08641e70   Thumb Code     0  ql_func.o(i.Ql_FileCheckDir)
    i.Ql_FileClose                           0x08641e98   Thumb Code     0  ql_func.o(i.Ql_FileClose)
    i.Ql_FileCreateDir                       0x08641ebc   Thumb Code     0  ql_func.o(i.Ql_FileCreateDir)
    i.Ql_StopTimer                           0x086432b8   Thumb Code     0  ql_func.o(i.Ql_StopTimer)
    i.Ql_TTS_Initialize                      0x086432e4   Thumb Code     0  ql_func.o(i.Ql_TTS_Initialize)
    i.Ql_TTS_Play                            0x08643310   Thumb Code     0  ql_func.o(i.Ql_TTS_Play)
    i.Ql_TTS_Query                           0x0864333c   Thumb Code     0  ql_func.o(i.Ql_TTS_Query)
    i.Ql_TTS_Stop                            0x08643368   Thumb Code     0  ql_func.o(i.Ql_TTS_Stop)
    i.Ql_UartClrRxBuffer                     0x08643394   Thumb Code     0  ql_func.o(i.Ql_UartClrRxBuffer)
    i.Ql_UartClrTxBuffer                     0x086433b8   Thumb Code     0  ql_func.o(i.Ql_UartClrTxBuffer)
    i.Ql_UartConfigEscape                    0x086433dc   Thumb Code     0  ql_func.o(i.Ql_UartConfigEscape)
    i.Ql_UartDirectnessReadData              0x08643404   Thumb Code     0  ql_func.o(i.Ql_UartDirectnessReadData)
    i.Ql_UartForceSendEscape                 0x08643430   Thumb Code     0  ql_func.o(i.Ql_UartForceSendEscape)
    i.Ql_UartGenericClearFEFlag              0x08643458   Thumb Code     0  ql_func.o(i.Ql_UartGenericClearFEFlag)
    i.Ql_UartGetBytesAvail                   0x0864347c   Thumb Code     0  ql_func.o(i.Ql_UartGetBytesAvail)
    i.Ql_UartGetTxRestBytes                  0x086434a4   Thumb Code     0  ql_func.o(i.Ql_UartGetTxRestBytes)
    i.Ql_UartGetTxRoomLeft                   0x086434cc   Thumb Code     0  ql_func.o(i.Ql_UartGetTxRoomLeft)
    i.Ql_UartGetVfifoThresholdInfo           0x086434f4   Thumb Code     0  ql_func.o(i.Ql_UartGetVfifoThresholdInfo)
    i.Ql_UartMaxGetVfifoThresholdInfo        0x08643524   Thumb Code     0  ql_func.o(i.Ql_UartMaxGetVfifoThresholdInfo)
    i.Ql_UartQueryDataMode                   0x08643554   Thumb Code     0  ql_func.o(i.Ql_UartQueryDataMode)
    i.Ql_UartSetGenericThreshold             0x08643580   Thumb Code     0  ql_func.o(i.Ql_UartSetGenericThreshold)
    i.Ql_UartSetVfifoThreshold               0x086435a8   Thumb Code     0  ql_func.o(i.Ql_UartSetVfifoThreshold)
    i.Ql_UartStartVfifoMonitorRxTimeout      0x086435d8   Thumb Code     0  ql_func.o(i.Ql_UartStartVfifoMonitorRxTimeout)
    i.Ql_UartStopVfifoMonitorRxTimeout       0x08643600   Thumb Code     0  ql_func.o(i.Ql_UartStopVfifoMonitorRxTimeout)
    i.Ql_VTS                                 0x08643628   Thumb Code     0  ql_func.o(i.Ql_VTS)
    i.Ql_VoiceCallChangePath                 0x08643654   Thumb Code     0  ql_func.o(i.Ql_VoiceCallChangePath)
    i.Ql_VoiceCallGetCurrentPath             0x0864367c   Thumb Code     0  ql_func.o(i.Ql_VoiceCallGetCurrentPath)
    i.Ql_WrtCodeRegion_Finish                0x086436a4   Thumb Code     0  ql_func.o(i.Ql_WrtCodeRegion_Finish)
    i.Ql_WrtCodeRegion_Init                  0x086436c8   Thumb Code     0  ql_func.o(i.Ql_WrtCodeRegion_Init)
    i.Ql_WrtCodeRegion_Write                 0x086436ec   Thumb Code     0  ql_func.o(i.Ql_WrtCodeRegion_Write)
    i.Ql_atof                                0x08643714   Thumb Code     0  ql_func.o(i.Ql_atof)
    i.Ql_busQuery                            0x08643740   Thumb Code     0  ql_func.o(i.Ql_busQuery)
    i.Ql_busRead                             0x0864376c   Thumb Code     0  ql_func.o(i.Ql_busRead)
    i.Ql_busSubscribe                        0x08643798   Thumb Code     0  ql_func.o(i.Ql_busSubscribe)
    i.Ql_busUnSubscribe                      0x086437c4   Thumb Code     0  ql_func.o(i.Ql_busUnSubscribe)
    i.Ql_busWrite                            0x086437f0   Thumb Code     0  ql_func.o(i.Ql_busWrite)
    i.Ql_eintMask                            0x0864381c   Thumb Code     0  ql_func.o(i.Ql_eintMask)
    i.Ql_eintRead                            0x08643840   Thumb Code     0  ql_func.o(i.Ql_eintRead)
    i.Ql_eintSetPolarity                     0x08643864   Thumb Code     0  ql_func.o(i.Ql_eintSetPolarity)
    i.Ql_itoa                                0x08643888   Thumb Code     0  ql_func.o(i.Ql_itoa)
    i.Ql_itof                                0x086438a8   Thumb Code     0  ql_func.o(i.Ql_itof)
    i.Ql_memMaxCanAllocSize                  0x086438c8   Thumb Code     0  ql_func.o(i.Ql_memMaxCanAllocSize)
    i.Ql_memTotalLeftSize                    0x086438e8   Thumb Code     0  ql_func.o(i.Ql_memTotalLeftSize)
    i.Ql_memcmp                              0x08643908   Thumb Code     0  ql_func.o(i.Ql_memcmp)
    i.Ql_memcpy                              0x0864392c   Thumb Code     0  ql_func.o(i.Ql_memcpy)
    i.Ql_memmove                             0x0864394c   Thumb Code     0  ql_func.o(i.Ql_memmove)
    i.Ql_memset                              0x0864396c   Thumb Code     0  ql_func.o(i.Ql_memset)
    i.Ql_osChangeTaskPriority                0x0864398c   Thumb Code     0  ql_func.o(i.Ql_osChangeTaskPriority)
    i.Ql_osCreateMutex                       0x086439b4   Thumb Code     0  ql_func.o(i.Ql_osCreateMutex)
    i.Ql_osCreateSemaphore                   0x086439dc   Thumb Code     0  ql_func.o(i.Ql_osCreateSemaphore)
    i.Ql_osGetCurrenTaskRemainStackSize      0x08643a04   Thumb Code     0  ql_func.o(i.Ql_osGetCurrenTaskRemainStackSize)
    i.Ql_osGetCurrentTaskPriority            0x08643a2c   Thumb Code     0  ql_func.o(i.Ql_osGetCurrentTaskPriority)
    i.Ql_osGiveMutex                         0x08643a54   Thumb Code     0  ql_func.o(i.Ql_osGiveMutex)
    i.Ql_osGiveSemaphore                     0x08643a78   Thumb Code     0  ql_func.o(i.Ql_osGiveSemaphore)
    i.Ql_osSendEvent                         0x08643a9c   Thumb Code     0  ql_func.o(i.Ql_osSendEvent)
    i.Ql_osTakeMutex                         0x08643ac8   Thumb Code     0  ql_func.o(i.Ql_osTakeMutex)
    i.Ql_osTakeSemaphore                     0x08643aec   Thumb Code     0  ql_func.o(i.Ql_osTakeSemaphore)
    i.Ql_pinControl                          0x08643b14   Thumb Code     0  ql_func.o(i.Ql_pinControl)
    i.Ql_IsSIMInserted                       0x086427dc   Thumb Code     0  ql_func.o(i.Ql_IsSIMInserted)
    i.Ql_MillisecondToTicks                  0x08642804   Thumb Code     0  ql_func.o(i.Ql_MillisecondToTicks)
    i.Ql_pinSubscribe                        0x08643b8c   Thumb Code     0  ql_func.o(i.Ql_pinSubscribe)
    i.Ql_pinUnSubscribe                      0x08643bb4   Thumb Code     0  ql_func.o(i.Ql_pinUnSubscribe)
    i.Ql_pinWrite                            0x08643bdc   Thumb Code     0  ql_func.o(i.Ql_pinWrite)
    i.Ql_strcat                              0x08643c04   Thumb Code     0  ql_func.o(i.Ql_strcat)
    i.Ql_strchr                              0x08643c24   Thumb Code     0  ql_func.o(i.Ql_strchr)
    i.Ql_PowerOnAck                          0x086428fc   Thumb Code     0  ql_func.o(i.Ql_PowerOnAck)
    i.Ql_ReadADC                             0x0864291c   Thumb Code     0  ql_func.o(i.Ql_ReadADC)
    i.Ql_ReadModuleUID                       0x08642948   Thumb Code     0  ql_func.o(i.Ql_ReadModuleUID)
    i.Ql_strncat                             0x08643ca8   Thumb Code     0  ql_func.o(i.Ql_strncat)
    i.Ql_strncmp                             0x08643cc8   Thumb Code     0  ql_func.o(i.Ql_strncmp)
    i.Ql_strncpy                             0x08643cec   Thumb Code     0  ql_func.o(i.Ql_strncpy)
    i.Ql_strstr                              0x08643d0c   Thumb Code     0  ql_func.o(i.Ql_strstr)
    i.Ql_SocketSetSendBufferSize             0x086430b4   Thumb Code     0  ql_func.o(i.Ql_SocketSetSendBufferSize)
    i.Ql_SocketTcpAckNumber                  0x086430e0   Thumb Code     0  ql_func.o(i.Ql_SocketTcpAckNumber)
    i.Ql_StarLowLevelTimer                   0x0864310c   Thumb Code     0  ql_func.o(i.Ql_StarLowLevelTimer)
    i.Ql_StartPlayAudioFile                  0x08643134   Thumb Code     0  ql_func.o(i.Ql_StartPlayAudioFile)
    i.Ql_StartPlayAudioStream                0x08643160   Thumb Code     0  ql_func.o(i.Ql_StartPlayAudioStream)
    i.Ql_StartTimer                          0x0864319c   Thumb Code     0  ql_func.o(i.Ql_StartTimer)
    i.Ql_StartWatchdog                       0x086431c4   Thumb Code     0  ql_func.o(i.Ql_StartWatchdog)
    i.Ql_StopAudio                           0x086431e4   Thumb Code     0  ql_func.o(i.Ql_StopAudio)
    i.Ql_StopAudioFile_8k                    0x08643210   Thumb Code     0  ql_func.o(i.Ql_StopAudioFile_8k)
    i.Ql_StopLowLevelTimer                   0x0864323c   Thumb Code     0  ql_func.o(i.Ql_StopLowLevelTimer)
    i.Ql_StopPlayAudioFile                   0x08643260   Thumb Code     0  ql_func.o(i.Ql_StopPlayAudioFile)
    i.Ql_StopPlayAudioStream                 0x0864328c   Thumb Code     0  ql_func.o(i.Ql_StopPlayAudioStream)
    i.Ql_SocketClose                         0x08642ecc   Thumb Code     0  ql_func.o(i.Ql_SocketClose)
    .bss                                     0x0020010c   Data           0  ql_func.o(.bss)
    i.Ql_SocketBind                          0x08642e74   Thumb Code     0  ql_func.o(i.Ql_SocketBind)
    i.Ql_SocketCheckIp                       0x08642ea0   Thumb Code     0  ql_func.o(i.Ql_SocketCheckIp)
    i.Ql_pinQueryMode                        0x08643b3c   Thumb Code     0  ql_func.o(i.Ql_pinQueryMode)
    i.Ql_SocketConnect                       0x08642ef8   Thumb Code     0  ql_func.o(i.Ql_SocketConnect)
    i.Ql_SocketCreate                        0x08642f24   Thumb Code     0  ql_func.o(i.Ql_SocketCreate)
    i.Ql_SocketHtonl                         0x08642f4c   Thumb Code     0  ql_func.o(i.Ql_SocketHtonl)
    .constdata                               0x08648948   Data           0  ql_func.o(.constdata)
    i.Ql_strcpy                              0x08643c68   Thumb Code     0  ql_func.o(i.Ql_strcpy)
    i.Ql_strlen                              0x08643c88   Thumb Code     0  ql_func.o(i.Ql_strlen)
    .bss                                     0x00200434   Data           0  ql_func.o(.bss)
    i.Ql_pinRead                             0x08643b64   Thumb Code     0  ql_func.o(i.Ql_pinRead)
    .bss                                     0x00200438   Data           0  ql_func.o(.bss)
    i.Ql_strcmp                              0x08643c44   Thumb Code     0  ql_func.o(i.Ql_strcmp)
    C$debug_frame31                          0x00000000   Data           0  ql_func.o(.debug_frame)
    C$debug_frame32                          0x00000050   Data           0  ql_func.o(.debug_frame)
    C$debug_frame33                          0x000000a0   Data           0  ql_func.o(.debug_frame)
    C$debug_frame34                          0x000000f0   Data           0  ql_func.o(.debug_frame)
    C$debug_frame35                          0x00000140   Data           0  ql_func.o(.debug_frame)
    C$debug_frame36                          0x00000190   Data           0  ql_func.o(.debug_frame)
    C$debug_frame37                          0x000001e0   Data           0  ql_func.o(.debug_frame)
    C$debug_frame38                          0x00000230   Data           0  ql_func.o(.debug_frame)
    C$debug_frame39                          0x00000280   Data           0  ql_func.o(.debug_frame)
    C$debug_frame40                          0x000002d0   Data           0  ql_func.o(.debug_frame)
    C$debug_frame41                          0x00000320   Data           0  ql_func.o(.debug_frame)
    C$debug_frame42                          0x00000370   Data           0  ql_func.o(.debug_frame)
    C$debug_frame43                          0x000003c0   Data           0  ql_func.o(.debug_frame)
    C$debug_frame44                          0x00000410   Data           0  ql_func.o(.debug_frame)
    C$debug_frame45                          0x00000460   Data           0  ql_func.o(.debug_frame)
    C$debug_frame46                          0x000004b0   Data           0  ql_func.o(.debug_frame)
    C$debug_frame47                          0x00000500   Data           0  ql_func.o(.debug_frame)
    C$debug_frame48                          0x00000550   Data           0  ql_func.o(.debug_frame)
    C$debug_frame49                          0x000005a0   Data           0  ql_func.o(.debug_frame)
    C$debug_frame50                          0x000005f0   Data           0  ql_func.o(.debug_frame)
    C$debug_frame51                          0x00000640   Data           0  ql_func.o(.debug_frame)
    C$debug_frame52                          0x00000690   Data           0  ql_func.o(.debug_frame)
    C$debug_frame53                          0x000006e0   Data           0  ql_func.o(.debug_frame)
    C$debug_frame54                          0x00000730   Data           0  ql_func.o(.debug_frame)
    C$debug_frame55                          0x00000780   Data           0  ql_func.o(.debug_frame)
    C$debug_frame56                          0x000007d0   Data           0  ql_func.o(.debug_frame)
    C$debug_frame57                          0x00000828   Data           0  ql_func.o(.debug_frame)
    C$debug_frame58                          0x00000878   Data           0  ql_func.o(.debug_frame)
    C$debug_frame59                          0x000008c8   Data           0  ql_func.o(.debug_frame)
    C$debug_frame60                          0x00000918   Data           0  ql_func.o(.debug_frame)
    C$debug_frame61                          0x00000968   Data           0  ql_func.o(.debug_frame)
    C$debug_frame62                          0x000009b8   Data           0  ql_func.o(.debug_frame)
    C$debug_frame63                          0x00000a08   Data           0  ql_func.o(.debug_frame)
    C$debug_frame64                          0x00000a58   Data           0  ql_func.o(.debug_frame)
    C$debug_frame65                          0x00000aa8   Data           0  ql_func.o(.debug_frame)
    C$debug_frame66                          0x00000af8   Data           0  ql_func.o(.debug_frame)
    C$debug_frame67                          0x00000b48   Data           0  ql_func.o(.debug_frame)
    C$debug_frame68                          0x00000b98   Data           0  ql_func.o(.debug_frame)
    C$debug_frame69                          0x00000be8   Data           0  ql_func.o(.debug_frame)
    C$debug_frame70                          0x00000c38   Data           0  ql_func.o(.debug_frame)
    C$debug_frame71                          0x00000c88   Data           0  ql_func.o(.debug_frame)
    C$debug_frame72                          0x00000cd8   Data           0  ql_func.o(.debug_frame)
    C$debug_frame73                          0x00000d28   Data           0  ql_func.o(.debug_frame)
    C$debug_frame74                          0x00000d78   Data           0  ql_func.o(.debug_frame)
    C$debug_frame75                          0x00000dc8   Data           0  ql_func.o(.debug_frame)
    C$debug_frame76                          0x00000e18   Data           0  ql_func.o(.debug_frame)
    C$debug_frame77                          0x00000e68   Data           0  ql_func.o(.debug_frame)
    C$debug_frame78                          0x00000eb8   Data           0  ql_func.o(.debug_frame)
    C$debug_frame79                          0x00000f08   Data           0  ql_func.o(.debug_frame)
    C$debug_frame80                          0x00000f54   Data           0  ql_func.o(.debug_frame)
    C$debug_frame81                          0x00000fa0   Data           0  ql_func.o(.debug_frame)
    C$debug_frame82                          0x00000ff0   Data           0  ql_func.o(.debug_frame)
    C$debug_frame83                          0x00001040   Data           0  ql_func.o(.debug_frame)
    C$debug_frame84                          0x00001090   Data           0  ql_func.o(.debug_frame)
    C$debug_frame85                          0x000010e0   Data           0  ql_func.o(.debug_frame)
    C$debug_frame86                          0x00001130   Data           0  ql_func.o(.debug_frame)
    C$debug_frame87                          0x00001180   Data           0  ql_func.o(.debug_frame)
    C$debug_frame88                          0x000011d0   Data           0  ql_func.o(.debug_frame)
    C$debug_frame89                          0x00001220   Data           0  ql_func.o(.debug_frame)
    C$debug_frame90                          0x00001270   Data           0  ql_func.o(.debug_frame)
    C$debug_frame91                          0x000012c0   Data           0  ql_func.o(.debug_frame)
    C$debug_frame92                          0x00001310   Data           0  ql_func.o(.debug_frame)
    C$debug_frame93                          0x00001360   Data           0  ql_func.o(.debug_frame)
    C$debug_frame94                          0x000013b0   Data           0  ql_func.o(.debug_frame)
    C$debug_frame95                          0x00001400   Data           0  ql_func.o(.debug_frame)
    C$debug_frame96                          0x00001450   Data           0  ql_func.o(.debug_frame)
    C$debug_frame97                          0x000014a0   Data           0  ql_func.o(.debug_frame)
    C$debug_frame98                          0x000014f0   Data           0  ql_func.o(.debug_frame)
    C$debug_frame99                          0x00001540   Data           0  ql_func.o(.debug_frame)
    C$debug_frame100                         0x00001590   Data           0  ql_func.o(.debug_frame)
    C$debug_frame101                         0x000015e0   Data           0  ql_func.o(.debug_frame)
    C$debug_frame102                         0x00001630   Data           0  ql_func.o(.debug_frame)
    C$debug_frame103                         0x00001680   Data           0  ql_func.o(.debug_frame)
    C$debug_frame104                         0x000016d0   Data           0  ql_func.o(.debug_frame)
    C$debug_frame105                         0x00001720   Data           0  ql_func.o(.debug_frame)
    C$debug_frame106                         0x00001770   Data           0  ql_func.o(.debug_frame)
    C$debug_frame107                         0x000017bc   Data           0  ql_func.o(.debug_frame)
    C$debug_frame108                         0x0000180c   Data           0  ql_func.o(.debug_frame)
    C$debug_frame109                         0x0000185c   Data           0  ql_func.o(.debug_frame)
    C$debug_frame110                         0x000018ac   Data           0  ql_func.o(.debug_frame)
    C$debug_frame111                         0x000018fc   Data           0  ql_func.o(.debug_frame)
    C$debug_frame112                         0x0000194c   Data           0  ql_func.o(.debug_frame)
    C$debug_frame113                         0x0000199c   Data           0  ql_func.o(.debug_frame)
    C$debug_frame114                         0x000019ec   Data           0  ql_func.o(.debug_frame)
    C$debug_frame115                         0x00001a3c   Data           0  ql_func.o(.debug_frame)
    C$debug_frame116                         0x00001a8c   Data           0  ql_func.o(.debug_frame)
    C$debug_frame117                         0x00001adc   Data           0  ql_func.o(.debug_frame)
    C$debug_frame118                         0x00001b2c   Data           0  ql_func.o(.debug_frame)
    C$debug_frame119                         0x00001b7c   Data           0  ql_func.o(.debug_frame)
    C$debug_frame120                         0x00001bcc   Data           0  ql_func.o(.debug_frame)
    C$debug_frame121                         0x00001c18   Data           0  ql_func.o(.debug_frame)
    C$debug_frame122                         0x00001c68   Data           0  ql_func.o(.debug_frame)
    C$debug_frame123                         0x00001cb8   Data           0  ql_func.o(.debug_frame)
    C$debug_frame124                         0x00001d08   Data           0  ql_func.o(.debug_frame)
    C$debug_frame125                         0x00001d58   Data           0  ql_func.o(.debug_frame)
    C$debug_frame126                         0x00001da8   Data           0  ql_func.o(.debug_frame)
    C$debug_frame127                         0x00001df8   Data           0  ql_func.o(.debug_frame)
    C$debug_frame128                         0x00001e48   Data           0  ql_func.o(.debug_frame)
    C$debug_frame129                         0x00001e98   Data           0  ql_func.o(.debug_frame)
    C$debug_frame130                         0x00001ee8   Data           0  ql_func.o(.debug_frame)
    C$debug_frame131                         0x00001f38   Data           0  ql_func.o(.debug_frame)
    C$debug_frame132                         0x00001f88   Data           0  ql_func.o(.debug_frame)
    C$debug_frame133                         0x00001fd8   Data           0  ql_func.o(.debug_frame)
    C$debug_frame134                         0x00002028   Data           0  ql_func.o(.debug_frame)
    C$debug_frame135                         0x00002078   Data           0  ql_func.o(.debug_frame)
    C$debug_frame136                         0x000020c8   Data           0  ql_func.o(.debug_frame)
    C$debug_frame137                         0x00002118   Data           0  ql_func.o(.debug_frame)
    C$debug_frame138                         0x00002168   Data           0  ql_func.o(.debug_frame)
    C$debug_frame139                         0x000021b8   Data           0  ql_func.o(.debug_frame)
    C$debug_frame140                         0x00002204   Data           0  ql_func.o(.debug_frame)
    C$debug_frame141                         0x00002254   Data           0  ql_func.o(.debug_frame)
    C$debug_frame142                         0x000022a4   Data           0  ql_func.o(.debug_frame)
    C$debug_frame143                         0x000022f4   Data           0  ql_func.o(.debug_frame)
    C$debug_frame144                         0x00002344   Data           0  ql_func.o(.debug_frame)
    C$debug_frame145                         0x00002394   Data           0  ql_func.o(.debug_frame)
    C$debug_frame146                         0x000023e4   Data           0  ql_func.o(.debug_frame)
    C$debug_frame147                         0x00002434   Data           0  ql_func.o(.debug_frame)
    C$debug_frame148                         0x00002484   Data           0  ql_func.o(.debug_frame)
    C$debug_frame149                         0x000024d4   Data           0  ql_func.o(.debug_frame)
    C$debug_frame150                         0x00002520   Data           0  ql_func.o(.debug_frame)
    C$debug_frame151                         0x0000256c   Data           0  ql_func.o(.debug_frame)
    C$debug_frame152                         0x000025b8   Data           0  ql_func.o(.debug_frame)
    C$debug_frame153                         0x00002608   Data           0  ql_func.o(.debug_frame)
    C$debug_frame154                         0x00002658   Data           0  ql_func.o(.debug_frame)
    C$debug_frame155                         0x000026a8   Data           0  ql_func.o(.debug_frame)
    C$debug_frame156                         0x000026f8   Data           0  ql_func.o(.debug_frame)
    C$debug_frame157                         0x00002748   Data           0  ql_func.o(.debug_frame)
    C$debug_frame158                         0x00002794   Data           0  ql_func.o(.debug_frame)
    C$debug_frame159                         0x000027e4   Data           0  ql_func.o(.debug_frame)
    C$debug_frame160                         0x00002834   Data           0  ql_func.o(.debug_frame)
    C$debug_frame161                         0x00002884   Data           0  ql_func.o(.debug_frame)
    C$debug_frame162                         0x000028d4   Data           0  ql_func.o(.debug_frame)
    C$debug_frame163                         0x00002924   Data           0  ql_func.o(.debug_frame)
    C$debug_frame164                         0x00002974   Data           0  ql_func.o(.debug_frame)
    C$debug_frame165                         0x000029c4   Data           0  ql_func.o(.debug_frame)
    C$debug_frame166                         0x00002a14   Data           0  ql_func.o(.debug_frame)
    C$debug_frame167                         0x00002a64   Data           0  ql_func.o(.debug_frame)
    C$debug_frame168                         0x00002ab4   Data           0  ql_func.o(.debug_frame)
    C$debug_frame169                         0x00002b04   Data           0  ql_func.o(.debug_frame)
    C$debug_frame170                         0x00002b54   Data           0  ql_func.o(.debug_frame)
    C$debug_frame171                         0x00002ba0   Data           0  ql_func.o(.debug_frame)
    C$debug_frame172                         0x00002bec   Data           0  ql_func.o(.debug_frame)
    C$debug_frame173                         0x00002c3c   Data           0  ql_func.o(.debug_frame)
    C$debug_frame174                         0x00002c8c   Data           0  ql_func.o(.debug_frame)
    C$debug_frame175                         0x00002cdc   Data           0  ql_func.o(.debug_frame)
    C$debug_frame176                         0x00002d30   Data           0  ql_func.o(.debug_frame)
    C$debug_frame177                         0x00002d80   Data           0  ql_func.o(.debug_frame)
    C$debug_frame178                         0x00002dd0   Data           0  ql_func.o(.debug_frame)
    C$debug_frame179                         0x00002e1c   Data           0  ql_func.o(.debug_frame)
    C$debug_frame180                         0x00002e6c   Data           0  ql_func.o(.debug_frame)
    C$debug_frame181                         0x00002ebc   Data           0  ql_func.o(.debug_frame)
    C$debug_frame182                         0x00002f0c   Data           0  ql_func.o(.debug_frame)
    C$debug_frame183                         0x00002f58   Data           0  ql_func.o(.debug_frame)
    C$debug_frame184                         0x00002fa8   Data           0  ql_func.o(.debug_frame)
    C$debug_frame185                         0x00002ff8   Data           0  ql_func.o(.debug_frame)
    C$debug_frame186                         0x00003048   Data           0  ql_func.o(.debug_frame)
    C$debug_frame187                         0x00003098   Data           0  ql_func.o(.debug_frame)
    C$debug_frame188                         0x000030e8   Data           0  ql_func.o(.debug_frame)
    C$debug_frame189                         0x00003138   Data           0  ql_func.o(.debug_frame)
    C$debug_frame190                         0x00003188   Data           0  ql_func.o(.debug_frame)
    C$debug_frame191                         0x000031d8   Data           0  ql_func.o(.debug_frame)
    C$debug_frame192                         0x00003228   Data           0  ql_func.o(.debug_frame)
    C$debug_frame193                         0x00003278   Data           0  ql_func.o(.debug_frame)
    C$debug_frame194                         0x000032c8   Data           0  ql_func.o(.debug_frame)
    C$debug_frame195                         0x00003318   Data           0  ql_func.o(.debug_frame)
    C$debug_frame196                         0x00003368   Data           0  ql_func.o(.debug_frame)
    C$debug_frame197                         0x000033b8   Data           0  ql_func.o(.debug_frame)
    C$debug_frame198                         0x00003408   Data           0  ql_func.o(.debug_frame)
    C$debug_frame199                         0x00003458   Data           0  ql_func.o(.debug_frame)
    C$debug_frame200                         0x000034a8   Data           0  ql_func.o(.debug_frame)
    C$debug_frame201                         0x000034f8   Data           0  ql_func.o(.debug_frame)
    C$debug_frame202                         0x00003548   Data           0  ql_func.o(.debug_frame)
    C$debug_frame203                         0x00003598   Data           0  ql_func.o(.debug_frame)
    C$debug_frame204                         0x000035e8   Data           0  ql_func.o(.debug_frame)
    C$debug_frame205                         0x00003638   Data           0  ql_func.o(.debug_frame)
    C$debug_frame206                         0x00003688   Data           0  ql_func.o(.debug_frame)
    C$debug_frame207                         0x000036d8   Data           0  ql_func.o(.debug_frame)
    C$debug_frame208                         0x00003728   Data           0  ql_func.o(.debug_frame)
    C$debug_frame209                         0x00003778   Data           0  ql_func.o(.debug_frame)
    C$debug_frame210                         0x000037c8   Data           0  ql_func.o(.debug_frame)
    C$debug_frame211                         0x00003818   Data           0  ql_func.o(.debug_frame)
    C$debug_frame212                         0x00003868   Data           0  ql_func.o(.debug_frame)
    C$debug_frame213                         0x000038b8   Data           0  ql_func.o(.debug_frame)
    C$debug_frame214                         0x00003908   Data           0  ql_func.o(.debug_frame)
    C$debug_frame215                         0x00003958   Data           0  ql_func.o(.debug_frame)
    C$debug_frame216                         0x000039a8   Data           0  ql_func.o(.debug_frame)
    C$debug_frame217                         0x000039f8   Data           0  ql_func.o(.debug_frame)
    C$debug_frame218                         0x00003a48   Data           0  ql_func.o(.debug_frame)
    C$debug_frame219                         0x00003a98   Data           0  ql_func.o(.debug_frame)
    C$debug_frame220                         0x00003ae8   Data           0  ql_func.o(.debug_frame)
    C$debug_frame221                         0x00003b38   Data           0  ql_func.o(.debug_frame)
    C$debug_frame222                         0x00003b88   Data           0  ql_func.o(.debug_frame)
    C$debug_frame223                         0x00003bd8   Data           0  ql_func.o(.debug_frame)
    C$debug_frame224                         0x00003c28   Data           0  ql_func.o(.debug_frame)
    C$debug_frame225                         0x00003c78   Data           0  ql_func.o(.debug_frame)
    C$debug_frame226                         0x00003cc8   Data           0  ql_func.o(.debug_frame)
    C$debug_frame227                         0x00003d18   Data           0  ql_func.o(.debug_frame)
    C$debug_frame228                         0x00003d68   Data           0  ql_func.o(.debug_frame)
    C$debug_frame229                         0x00003db8   Data           0  ql_func.o(.debug_frame)
    C$debug_frame230                         0x00003e08   Data           0  ql_func.o(.debug_frame)
    C$debug_frame231                         0x00003e58   Data           0  ql_func.o(.debug_frame)
    C$debug_frame232                         0x00003ea8   Data           0  ql_func.o(.debug_frame)
    .bss$2                                   0x0020010c   Data           0  ql_func.o(.bss)
    .bss$7                                   0x00200434   Data           0  ql_func.o(.bss)
    .bss$12                                  0x00200438   Data           0  ql_func.o(.bss)
    .constdata$1                             0x08648948   Data           0  ql_func.o(.constdata)
    ql_main.c                                0x00000000   Number         0  ql_main.o ABSOLUTE
    .constdata                               0x0864b1f0   Data           0  ql_main.o(.constdata)
    GABADISP                                 0x08640000   Data           0  ql_main.o(GABADISP)
    i.ql_main                                0x086478d8   Thumb Code     0  ql_main.o(i.ql_main)
    i.ql_InitVFunc                           0x086456f8   Thumb Code     0  ql_main.o(i.ql_InitVFunc)
    .bss                                     0x0020043c   Data           0  ql_main.o(.bss)
    C$debug_frame62                          0x00003ef8   Data           0  ql_main.o(.debug_frame)
    C$debug_frame63                          0x00003f50   Data           0  ql_main.o(.debug_frame)
    .bss$2                                   0x0020043c   Data           0  ql_main.o(.bss)
    init_size                                0x0020043c   Data           4  ql_main.o(.bss)
    GABADISP$7                               0x08640000   Data           0  ql_main.o(GABADISP)
    .constdata$1                             0x0864b1f0   Data           0  ql_main.o(.constdata)
    customer.c                               0x00000000   Number         0  customer.o ABSOLUTE
    customerconfig\ql_customer_gpio.c        0x00000000   Number         0  ql_customer_gpio.o ABSOLUTE
    .constdata                               0x0864b264   Data           0  ql_customer_gpio.o(.constdata)
    .constdata                               0x0864b24c   Data           0  ql_customer_gpio.o(.constdata)
    .constdata$6                             0x0864b24c   Data           0  ql_customer_gpio.o(.constdata)
    .constdata$11                            0x0864b264   Data           0  ql_customer_gpio.o(.constdata)
    customerconfig\ql_customer_config.c      0x00000000   Number         0  ql_customer_config.o ABSOLUTE
    .constdata                               0x0864b658   Data           0  ql_customer_config.o(.constdata)
    .constdata                               0x0864b664   Data           0  ql_customer_config.o(.constdata)
    .bss                                     0x0020044c   Data           0  ql_customer_config.o(.bss)
    .bss                                     0x0020045c   Data           0  ql_customer_config.o(.bss)
    .constdata                               0x0864b65c   Data           0  ql_customer_config.o(.constdata)
    .constdata                               0x0864b660   Data           0  ql_customer_config.o(.constdata)
    .bss$27                                  0x0020044c   Data           0  ql_customer_config.o(.bss)
    .bss$32                                  0x0020045c   Data           0  ql_customer_config.o(.bss)
    .constdata$6                             0x0864b658   Data           0  ql_customer_config.o(.constdata)
    .constdata$11                            0x0864b65c   Data           0  ql_customer_config.o(.constdata)
    .constdata$16                            0x0864b660   Data           0  ql_customer_config.o(.constdata)
    .constdata$21                            0x0864b664   Data           0  ql_customer_config.o(.constdata)
    user1\user1.c                            0x00000000   Number         0  user1.o ABSOLUTE
    i.user1_func                             0x086488a4   Thumb Code     0  user1.o(i.user1_func)
    C$debug_frame5                           0x00003fa8   Data           0  user1.o(.debug_frame)
    user2\user2.c                            0x00000000   Number         0  user2.o ABSOLUTE
    i.user2_func                             0x086488a8   Thumb Code     0  user2.o(i.user2_func)
    C$debug_frame5                           0x00003fe4   Data           0  user2.o(.debug_frame)
    user1\subusr1\subusr1.c                  0x00000000   Number         0  subusr1.o ABSOLUTE
    i.subusr1_func                           0x08647fc4   Thumb Code     0  subusr1.o(i.subusr1_func)
    C$debug_frame5                           0x00004020   Data           0  subusr1.o(.debug_frame)
    example_at.c                             0x00000000   Number         0  example_at.o ABSOLUTE
    example_gpio.c                           0x00000000   Number         0  example_gpio.o ABSOLUTE
    example_eint.c                           0x00000000   Number         0  example_eint.o ABSOLUTE
    example_memory.c                         0x00000000   Number         0  example_memory.o ABSOLUTE
    example_pwm.c                            0x00000000   Number         0  example_pwm.o ABSOLUTE
    example_clk.c                            0x00000000   Number         0  example_clk.o ABSOLUTE
    example_alert.c                          0x00000000   Number         0  example_alert.o ABSOLUTE
    example_keyboard.c                       0x00000000   Number         0  example_keyboard.o ABSOLUTE
    example_lcd.c                            0x00000000   Number         0  example_lcd.o ABSOLUTE
    example_i2c.c                            0x00000000   Number         0  example_i2c.o ABSOLUTE
    example_file.c                           0x00000000   Number         0  example_file.o ABSOLUTE
    example_audio.c                          0x00000000   Number         0  example_audio.o ABSOLUTE
    example_transpass.c                      0x00000000   Number         0  example_transpass.o ABSOLUTE
    example_tcpip.c                          0x00000000   Number         0  example_tcpip.o ABSOLUTE
    i.openfile2                              0x08645690   Thumb Code     0  example_tcpip.o(i.openfile2)
    i.save_new_Apn_settings                  0x08647940   Thumb Code     0  example_tcpip.o(i.save_new_Apn_settings)
    i.openfile1                              0x08645628   Thumb Code     0  example_tcpip.o(i.openfile1)
    i.ql_entry                               0x086465a4   Thumb Code     0  example_tcpip.o(i.ql_entry)
    .bss                                     0x002042f9   Data           0  example_tcpip.o(.bss)
    i.RESETFLAG                              0x08643d2c   Thumb Code     0  example_tcpip.o(i.RESETFLAG)
    .bss                                     0x002042fb   Data           0  example_tcpip.o(.bss)
    .bss                                     0x002041f8   Data           0  example_tcpip.o(.bss)
    .bss                                     0x00204301   Data           0  example_tcpip.o(.bss)
    .bss                                     0x0020431a   Data           0  example_tcpip.o(.bss)
    i.key_send                               0x08645600   Thumb Code     0  example_tcpip.o(i.key_send)
    .bss                                     0x00204306   Data           0  example_tcpip.o(.bss)
    .bss                                     0x002042fa   Data           0  example_tcpip.o(.bss)
    .bss                                     0x002042fd   Data           0  example_tcpip.o(.bss)
    .bss                                     0x002041fc   Data           0  example_tcpip.o(.bss)
    .bss                                     0x002041e8   Data           0  example_tcpip.o(.bss)
    .bss                                     0x002042d0   Data           0  example_tcpip.o(.bss)
    .bss                                     0x002042f8   Data           0  example_tcpip.o(.bss)
    i.save_new_Update_timer_settings         0x08647b9c   Thumb Code     0  example_tcpip.o(i.save_new_Update_timer_settings)
    .bss                                     0x002042ff   Data           0  example_tcpip.o(.bss)
    .bss                                     0x002042fc   Data           0  example_tcpip.o(.bss)
    i.CallBack_getipbyname                   0x08640678   Thumb Code     0  example_tcpip.o(i.CallBack_getipbyname)
    i.uart2_datahandler                      0x08648304   Thumb Code     0  example_tcpip.o(i.uart2_datahandler)
    i.SendAtCmd                              0x08643d4c   Thumb Code     0  example_tcpip.o(i.SendAtCmd)
    .bss                                     0x00202c5c   Data           0  example_tcpip.o(.bss)
    .constdata                               0x0864b668   Data           0  example_tcpip.o(.constdata)
    .bss                                     0x00204310   Data           0  example_tcpip.o(.bss)
    .bss                                     0x00204252   Data           0  example_tcpip.o(.bss)
    .bss                                     0x00204300   Data           0  example_tcpip.o(.bss)
    .bss                                     0x002041ea   Data           0  example_tcpip.o(.bss)
    i.save_new_OwnNumber_settings            0x08647a70   Thumb Code     0  example_tcpip.o(i.save_new_OwnNumber_settings)
    i.AdcPrepareString                       0x086404ac   Thumb Code     0  example_tcpip.o(i.AdcPrepareString)
    .bss                                     0x002041f4   Data           0  example_tcpip.o(.bss)
    i.CallBack_GprsAPNGet                    0x08640580   Thumb Code     0  example_tcpip.o(i.CallBack_GprsAPNGet)
    .bss                                     0x002042cc   Data           0  example_tcpip.o(.bss)
    i.CallBack_GprsAPNSet                    0x08640600   Thumb Code     0  example_tcpip.o(i.CallBack_GprsAPNSet)
    .data                                    0x002000fa   Data           0  example_tcpip.o(.data)
    .bss                                     0x002042d8   Data           0  example_tcpip.o(.bss)
    i.CallBack_network_deactived             0x08640898   Thumb Code     0  example_tcpip.o(i.CallBack_network_deactived)
    .bss                                     0x00204200   Data           0  example_tcpip.o(.bss)
    i.CallBack_socket_close                  0x08640940   Thumb Code     0  example_tcpip.o(i.CallBack_socket_close)
    i.save_new_ip_settings                   0x08647cbc   Thumb Code     0  example_tcpip.o(i.save_new_ip_settings)
    .bss                                     0x002042fe   Data           0  example_tcpip.o(.bss)
    i.uart1_datahandler                      0x08647fc8   Thumb Code     0  example_tcpip.o(i.uart1_datahandler)
    .bss                                     0x00204304   Data           0  example_tcpip.o(.bss)
    .bss                                     0x00204305   Data           0  example_tcpip.o(.bss)
    i.GPIO_ReadFunction                      0x08641904   Thumb Code     0  example_tcpip.o(i.GPIO_ReadFunction)
    i.iosend_function                        0x086450f8   Thumb Code     0  example_tcpip.o(i.iosend_function)
    i.OpenSetting_File                       0x08641b44   Thumb Code     0  example_tcpip.o(i.OpenSetting_File)
    i.SendGPS_Setting                        0x08644120   Thumb Code     0  example_tcpip.o(i.SendGPS_Setting)
    i.CallBack_network_actived               0x08640710   Thumb Code     0  example_tcpip.o(i.CallBack_network_actived)
    .bss                                     0x002042d4   Data           0  example_tcpip.o(.bss)
    i.CallBack_socket_accept                 0x0864093c   Thumb Code     0  example_tcpip.o(i.CallBack_socket_accept)
    i.AdcFunction                            0x086403c0   Thumb Code     0  example_tcpip.o(i.AdcFunction)
    .bss                                     0x002041ec   Data           0  example_tcpip.o(.bss)
    .bss                                     0x00204302   Data           0  example_tcpip.o(.bss)
    .bss                                     0x002041f0   Data           0  example_tcpip.o(.bss)
    .data                                    0x002000f5   Data           0  example_tcpip.o(.data)
    i.FileSyatem_ReadFunction                0x08640f78   Thumb Code     0  example_tcpip.o(i.FileSyatem_ReadFunction)
    i.CHECKFLAG                              0x0864056c   Thumb Code     0  example_tcpip.o(i.CHECKFLAG)
    .data                                    0x002000da   Data           0  example_tcpip.o(.data)
    i.PrepareString                          0x08641c3c   Thumb Code     0  example_tcpip.o(i.PrepareString)
    .data                                    0x00200000   Data           0  example_tcpip.o(.data)
    i.SETFLAG                                0x08643d3c   Thumb Code     0  example_tcpip.o(i.SETFLAG)
    i.Power_Supply_Pulse                     0x08641ba8   Thumb Code     0  example_tcpip.o(i.Power_Supply_Pulse)
    i.CallBack_socket_write                  0x08640de4   Thumb Code     0  example_tcpip.o(i.CallBack_socket_write)
    .bss                                     0x00204303   Data           0  example_tcpip.o(.bss)
    i.CallBack_socket_connect                0x086409f0   Thumb Code     0  example_tcpip.o(i.CallBack_socket_connect)
    .data                                    0x002000d8   Data           0  example_tcpip.o(.data)
    i.io_send                                0x086450c8   Thumb Code     0  example_tcpip.o(i.io_send)
    .bss                                     0x002042f4   Data           0  example_tcpip.o(.bss)
    i.filesystem_function                    0x08644be8   Thumb Code     0  example_tcpip.o(i.filesystem_function)
    i.GPIOPin_Config                         0x0864147c   Thumb Code     0  example_tcpip.o(i.GPIOPin_Config)
    .bss                                     0x002042e4   Data           0  example_tcpip.o(.bss)
    i.CallBack_socket_read                   0x08640aa8   Thumb Code     0  example_tcpip.o(i.CallBack_socket_read)
    i.SendAtCmd_Message_Read                 0x08644058   Thumb Code     0  example_tcpip.o(i.SendAtCmd_Message_Read)
    .bss                                     0x002042dc   Data           0  example_tcpip.o(.bss)
    i.Uart1_setting_received                 0x086442ec   Thumb Code     0  example_tcpip.o(i.Uart1_setting_received)
    .bss                                     0x002042a4   Data           0  example_tcpip.o(.bss)
    i.adcsend_function                       0x08644750   Thumb Code     0  example_tcpip.o(i.adcsend_function)
    i.Callback_Read_ADC                      0x08640f00   Thumb Code     0  example_tcpip.o(i.Callback_Read_ADC)
    i.Socket_DataSend_Function               0x08644278   Thumb Code     0  example_tcpip.o(i.Socket_DataSend_Function)
    .bss                                     0x002042e2   Data           0  example_tcpip.o(.bss)
    .data                                    0x002000d9   Data           0  example_tcpip.o(.data)
    i.Send_GSMVersionString                  0x086441d0   Thumb Code     0  example_tcpip.o(i.Send_GSMVersionString)
    C$debug_frame35                          0x0000405c   Data           0  example_tcpip.o(.debug_frame)
    C$debug_frame36                          0x00004098   Data           0  example_tcpip.o(.debug_frame)
    C$debug_frame37                          0x000040d4   Data           0  example_tcpip.o(.debug_frame)
    C$debug_frame38                          0x00004110   Data           0  example_tcpip.o(.debug_frame)
    C$debug_frame39                          0x0000415c   Data           0  example_tcpip.o(.debug_frame)
    C$debug_frame40                          0x000041ac   Data           0  example_tcpip.o(.debug_frame)
    C$debug_frame41                          0x00004200   Data           0  example_tcpip.o(.debug_frame)
    C$debug_frame42                          0x00004254   Data           0  example_tcpip.o(.debug_frame)
    C$debug_frame43                          0x000042a8   Data           0  example_tcpip.o(.debug_frame)
    C$debug_frame44                          0x000042fc   Data           0  example_tcpip.o(.debug_frame)
    C$debug_frame45                          0x00004350   Data           0  example_tcpip.o(.debug_frame)
    C$debug_frame46                          0x000043a4   Data           0  example_tcpip.o(.debug_frame)
    C$debug_frame47                          0x000043f8   Data           0  example_tcpip.o(.debug_frame)
    C$debug_frame48                          0x00004454   Data           0  example_tcpip.o(.debug_frame)
    C$debug_frame49                          0x000044a8   Data           0  example_tcpip.o(.debug_frame)
    C$debug_frame50                          0x000044f4   Data           0  example_tcpip.o(.debug_frame)
    C$debug_frame51                          0x00004540   Data           0  example_tcpip.o(.debug_frame)
    C$debug_frame52                          0x00004590   Data           0  example_tcpip.o(.debug_frame)
    C$debug_frame53                          0x000045e0   Data           0  example_tcpip.o(.debug_frame)
    C$debug_frame54                          0x00004634   Data           0  example_tcpip.o(.debug_frame)
    C$debug_frame55                          0x00004688   Data           0  example_tcpip.o(.debug_frame)
    C$debug_frame56                          0x000046d4   Data           0  example_tcpip.o(.debug_frame)
    C$debug_frame57                          0x00004728   Data           0  example_tcpip.o(.debug_frame)
    C$debug_frame58                          0x0000477c   Data           0  example_tcpip.o(.debug_frame)
    C$debug_frame59                          0x000047d8   Data           0  example_tcpip.o(.debug_frame)
    C$debug_frame60                          0x00004824   Data           0  example_tcpip.o(.debug_frame)
    C$debug_frame61                          0x00004878   Data           0  example_tcpip.o(.debug_frame)
    C$debug_frame62                          0x000048c8   Data           0  example_tcpip.o(.debug_frame)
    C$debug_frame63                          0x0000491c   Data           0  example_tcpip.o(.debug_frame)
    C$debug_frame64                          0x00004968   Data           0  example_tcpip.o(.debug_frame)
    C$debug_frame65                          0x000049c4   Data           0  example_tcpip.o(.debug_frame)
    C$debug_frame66                          0x00004a20   Data           0  example_tcpip.o(.debug_frame)
    C$debug_frame67                          0x00004a7c   Data           0  example_tcpip.o(.debug_frame)
    C$debug_frame68                          0x00004ad0   Data           0  example_tcpip.o(.debug_frame)
    C$debug_frame69                          0x00004b2c   Data           0  example_tcpip.o(.debug_frame)
    C$debug_frame70                          0x00004b88   Data           0  example_tcpip.o(.debug_frame)
    C$debug_frame71                          0x00004bdc   Data           0  example_tcpip.o(.debug_frame)
    C$debug_frame72                          0x00004c38   Data           0  example_tcpip.o(.debug_frame)
    C$debug_frame73                          0x00004c94   Data           0  example_tcpip.o(.debug_frame)
    C$debug_frame74                          0x00004cf0   Data           0  example_tcpip.o(.debug_frame)
    C$debug_frame75                          0x00004d2c   Data           0  example_tcpip.o(.debug_frame)
    C$debug_frame76                          0x00004d98   Data           0  example_tcpip.o(.debug_frame)
    .data$0                                  0x00200000   Data           0  example_tcpip.o(.data)
    .data$10                                 0x002000d8   Data           0  example_tcpip.o(.data)
    .data$35                                 0x002000d9   Data           0  example_tcpip.o(.data)
    .data$40                                 0x002000da   Data           0  example_tcpip.o(.data)
    .data$45                                 0x002000f5   Data           0  example_tcpip.o(.data)
    .data$50                                 0x002000fa   Data           0  example_tcpip.o(.data)
    .bss$2                                   0x00202c5c   Data           0  example_tcpip.o(.bss)
    send@uart1_datahandler_0                 0x00202c74   Data           1  example_tcpip.o(.bss)
    u_cnt                                    0x00202ca4   Data           4  example_tcpip.o(.bss)
    uart1_ptr1                               0x00202ca8   Data           4  example_tcpip.o(.bss)
    .bss$7                                   0x002041e8   Data           0  example_tcpip.o(.bss)
    .bss$17                                  0x002041ea   Data           0  example_tcpip.o(.bss)
    .bss$22                                  0x002041ec   Data           0  example_tcpip.o(.bss)
    .bss$27                                  0x002041f0   Data           0  example_tcpip.o(.bss)
    .bss$32                                  0x002041f4   Data           0  example_tcpip.o(.bss)
    .bss$57                                  0x002041f8   Data           0  example_tcpip.o(.bss)
    .bss$62                                  0x002041fc   Data           0  example_tcpip.o(.bss)
    .bss$67                                  0x00204200   Data           0  example_tcpip.o(.bss)
    .bss$72                                  0x00204252   Data           0  example_tcpip.o(.bss)
    .bss$77                                  0x002042a4   Data           0  example_tcpip.o(.bss)
    .bss$82                                  0x002042cc   Data           0  example_tcpip.o(.bss)
    .bss$87                                  0x002042d0   Data           0  example_tcpip.o(.bss)
    .bss$92                                  0x002042d4   Data           0  example_tcpip.o(.bss)
    .bss$97                                  0x002042d8   Data           0  example_tcpip.o(.bss)
    .bss$102                                 0x002042dc   Data           0  example_tcpip.o(.bss)
    .bss$107                                 0x002042e2   Data           0  example_tcpip.o(.bss)
    .bss$112                                 0x002042e4   Data           0  example_tcpip.o(.bss)
    .bss$117                                 0x002042f4   Data           0  example_tcpip.o(.bss)
    .bss$122                                 0x002042f8   Data           0  example_tcpip.o(.bss)
    .bss$127                                 0x002042f9   Data           0  example_tcpip.o(.bss)
    .bss$132                                 0x002042fa   Data           0  example_tcpip.o(.bss)
    .bss$137                                 0x002042fb   Data           0  example_tcpip.o(.bss)
    .bss$142                                 0x002042fc   Data           0  example_tcpip.o(.bss)
    .bss$147                                 0x002042fd   Data           0  example_tcpip.o(.bss)
    .bss$152                                 0x002042fe   Data           0  example_tcpip.o(.bss)
    .bss$157                                 0x002042ff   Data           0  example_tcpip.o(.bss)
    .bss$162                                 0x00204300   Data           0  example_tcpip.o(.bss)
    .bss$167                                 0x00204301   Data           0  example_tcpip.o(.bss)
    .bss$172                                 0x00204302   Data           0  example_tcpip.o(.bss)
    .bss$177                                 0x00204303   Data           0  example_tcpip.o(.bss)
    .bss$182                                 0x00204304   Data           0  example_tcpip.o(.bss)
    .bss$187                                 0x00204305   Data           0  example_tcpip.o(.bss)
    .bss$192                                 0x00204306   Data           0  example_tcpip.o(.bss)
    .bss$197                                 0x00204310   Data           0  example_tcpip.o(.bss)
    .bss$202                                 0x0020431a   Data           0  example_tcpip.o(.bss)
    .constdata$1                             0x0864b668   Data           0  example_tcpip.o(.constdata)
    example_multitask.c                      0x00000000   Number         0  example_multitask.o ABSOLUTE
    resource_audio.c                         0x00000000   Number         0  resource_audio.o ABSOLUTE
    example_sms.c                            0x00000000   Number         0  example_sms.o ABSOLUTE
    example_headset.c                        0x00000000   Number         0  example_headset.o ABSOLUTE
    example_lcm_st7545t.c                    0x00000000   Number         0  example_lcm_st7545t.o ABSOLUTE
    example_multitask_port.c                 0x00000000   Number         0  example_multitask_port.o ABSOLUTE
    example_lcm_uc1701.c                     0x00000000   Number         0  example_lcm_uc1701.o ABSOLUTE
    example_tcplong.c                        0x00000000   Number         0  example_tcplong.o ABSOLUTE
    example_multimemory.c                    0x00000000   Number         0  example_multimemory.o ABSOLUTE
    example_lowrateuart.c                    0x00000000   Number         0  example_lowrateuart.o ABSOLUTE
    example_eintcallback.c                   0x00000000   Number         0  example_eintcallback.o ABSOLUTE
    example_fota.c                           0x00000000   Number         0  example_fota.o ABSOLUTE
    example_helloWorld.c                     0x00000000   Number         0  example_helloWorld.o ABSOLUTE
    example_fota_http.c                      0x00000000   Number         0  example_fota_http.o ABSOLUTE
    example_tts.c                            0x00000000   Number         0  example_tts.o ABSOLUTE
    atc_pipe.c                               0x00000000   Number         0  atc_pipe.o ABSOLUTE
    example_call.c                           0x00000000   Number         0  example_call.o ABSOLUTE
    example_float_test.c                     0x00000000   Number         0  example_float_test.o ABSOLUTE
    example_led.c                            0x00000000   Number         0  example_led.o ABSOLUTE
    ../../armsys.c                           0x00000000   Number         0  lib_init.o ABSOLUTE
    C$debug_frame18                          0x00004df4   Data           0  lib_init.o(.debug_frame)
    ../../memcpset.s                         0x00000000   Number         0  rt_memclr_w.o ABSOLUTE
    <Anonymous Symbol>                       0x00004e7c   Data          84  rt_memclr_w.o(.debug_frame)
    ../../memcpset.s                         0x00000000   Number         0  rt_memcpy_w.o ABSOLUTE
    .text                                    0x08640044   Thumb Code   112  rt_memcpy_w.o(.text)
    <Anonymous Symbol>                       0x00004ed0   Data          84  rt_memcpy_w.o(.debug_frame)
    _memcpy_aligned_loop                     0x08640054   ARM Code       0  rt_memcpy_w.o(.text)
    _memcpy_small                            0x0864006c   ARM Code       0  rt_memcpy_w.o(.text)
    ../../division.s                         0x00000000   Number         0  rt_udiv.o ABSOLUTE
    <Anonymous Symbol>                       0x00004f24   Data          68  rt_udiv.o(.debug_frame)
    .text                                    0x086400b4   Thumb Code   196  rt_udiv.o(.text)
    ../../division.s                         0x00000000   Number         0  rtsdiv10.o ABSOLUTE
    <Anonymous Symbol>                       0x00004f68   Data          68  rtsdiv10.o(.debug_frame)
    .text                                    0x08640178   Thumb Code    68  rtsdiv10.o(.text)
    ../../division.s                         0x00000000   Number         0  rtudiv10.o ABSOLUTE
    <Anonymous Symbol>                       0x00004fac   Data          68  rtudiv10.o(.debug_frame)
    .text                                    0x086401bc   Thumb Code    48  rtudiv10.o(.text)
    ../../angel/sys.s                        0x00000000   Number         0  libspace.o ABSOLUTE
    <Anonymous Symbol>                       0x00004ff0   Data          68  libspace.o(.debug_frame)
    ../../angel/rt.s                         0x00000000   Number         0  rt_div0.o ABSOLUTE
    <Anonymous Symbol>                       0x00005034   Data          60  rt_div0.o(.debug_frame)
    .text                                    0x086401ec   Thumb Code    16  rt_div0.o(.text)
    ../../fpinit.s                           0x00000000   Number         0  fpinit.o ABSOLUTE
    <Anonymous Symbol>                       0x00005070   Data          80  fpinit.o(.debug_frame)
    ../../angel/rt.s                         0x00000000   Number         0  rt_fp_status_addr.o ABSOLUTE
    <Anonymous Symbol>                       0x000050c0   Data          80  rt_fp_status_addr.o(.debug_frame)
    ../../angel/rt.s                         0x00000000   Number         0  rt_raise.o ABSOLUTE
    .text                                    0x086401fc   Thumb Code    32  rt_raise.o(.text)
    <Anonymous Symbol>                       0x00005110   Data          84  rt_raise.o(.debug_frame)
    ../../signal.c                           0x00000000   Number         0  __raise.o ABSOLUTE
    .text                                    0x0864021c   Thumb Code     0  __raise.o(.text)
    C$debug_frame15                          0x00005164   Data           0  __raise.o(.debug_frame)
    ../../angel/sys.s                        0x00000000   Number         0  sys_exit.o ABSOLUTE
    <Anonymous Symbol>                       0x000051bc   Data          68  sys_exit.o(.debug_frame)
    .text                                    0x08640260   Thumb Code    28  sys_exit.o(.text)
    ../../unhosted.s                         0x00000000   Number         0  callvia.o ABSOLUTE
    .text                                    0x0864027c   Thumb Code    16  callvia.o(.text)
    ../../signal.c                           0x00000000   Number         0  defsig.o ABSOLUTE
    .text                                    0x0864028c   Thumb Code     0  defsig.o(.text)
    .constdata                               0x0864c4fc   Data           0  defsig.o(.constdata)
    C$debug_frame15                          0x00005200   Data           0  defsig.o(.debug_frame)
    .constdata$1                             0x0864c4fc   Data           0  defsig.o(.constdata)
    messages@__default_signal_handler_0      0x0864c4fc   Data          23  defsig.o(.constdata)
    ../../unhosted.s                         0x00000000   Number         0  sigdefs.o ABSOLUTE
    ../../angel/sys.s                        0x00000000   Number         0  use_semi.o ABSOLUTE
    <Anonymous Symbol>                       0x00005254   Data          68  use_semi.o(.debug_frame)
    .text                                    0x086403a4   Thumb Code     8  use_semi.o(.text)
    ../../angel/sysapp.c                     0x00000000   Number         0  sys_wrch.o ABSOLUTE
    .text                                    0x086403ac   Thumb Code     0  sys_wrch.o(.text)
    C$debug_frame14                          0x00005298   Data           0  sys_wrch.o(.debug_frame)

    Global Symbols

    Symbol Name                              Value     Ov Type        Size  Object(Section)

    BuildAttributes$$THUMB_ISAv2$M$E$P$PE$A:L22$X:L11$S22$IW$~STKCKD$~SHL$OSPACE$PRES8 0x00000000   Number         0  anon$$obj.o ABSOLUTE
    __Heap_DescSize                           - Undefined Weak Reference
    __alloca_initialize                       - Undefined Weak Reference
    __argv_alloc                              - Undefined Weak Reference
    __call_ctors()                            - Undefined Weak Reference
    __cpp_finalise                            - Undefined Weak Reference
    __cpp_initialise                          - Undefined Weak Reference
    __rt_get_argv                             - Undefined Weak Reference
    __sigvec_lookup                           - Undefined Weak Reference
    _atexit_init                              - Undefined Weak Reference
    _clock_init                               - Undefined Weak Reference
    _get_lc_collate                           - Undefined Weak Reference
    _get_lc_ctype                             - Undefined Weak Reference
    _get_lc_monetary                          - Undefined Weak Reference
    _get_lc_numeric                           - Undefined Weak Reference
    _get_lc_time                              - Undefined Weak Reference
    _getenv_init                              - Undefined Weak Reference
    _init_alloc                               - Undefined Weak Reference
    _init_user_alloc                          - Undefined Weak Reference
    _initio                                   - Undefined Weak Reference
    _rand_init                                - Undefined Weak Reference
    _signal_init                              - Undefined Weak Reference
    _terminate_user_alloc                     - Undefined Weak Reference
    _terminateio                              - Undefined Weak Reference
    Image$$EXTSRAMCPU$$Length                0x0000010c   Number         0  anon$$obj.o ABSOLUTE
    Image$$EXTSRAMCPU$$ZI$$Length            0x00004218   Number         0  anon$$obj.o ABSOLUTE
    Image$$EXTSRAMCPU$$Base                  0x00200000   Number         0  anon$$obj.o ABSOLUTE
    ispressed_varible                        0x00200000   Data           1  example_tcpip.o(.data)
    IP3_Previous_State                       0x00200001   Data           1  example_tcpip.o(.data)
    IO_STATUS                                0x00200002   Data           1  example_tcpip.o(.data)
    Not_Parameter_Update                     0x00200003   Data           1  example_tcpip.o(.data)
    port                                     0x00200004   Data           2  example_tcpip.o(.data)
    socketonly                               0x00200006   Data           2  example_tcpip.o(.data)
    udponly                                  0x00200008   Data           2  example_tcpip.o(.data)
    FTP_PATH                                 0x0020000a   Data           2  example_tcpip.o(.data)
    FTP_PORT                                 0x0020000c   Data           3  example_tcpip.o(.data)
    filehandle                               0x00200010   Data           4  example_tcpip.o(.data)
    filehandle1                              0x00200014   Data           4  example_tcpip.o(.data)
    filehandle2                              0x00200018   Data           4  example_tcpip.o(.data)
    timer_update_rate                        0x0020001c   Data           4  example_tcpip.o(.data)
    address                                  0x00200020   Data           4  example_tcpip.o(.data)
    port1_buffer                             0x00200024   Data           5  example_tcpip.o(.data)
    FTP_UFS_PATH                             0x00200029   Data           6  example_tcpip.o(.data)
    dataLen                                  0x00200030   Data           8  example_tcpip.o(.data)
    callback_func                            0x00200038   Data          28  example_tcpip.o(.data)
    End_Array                                0x00200054   Data          11  example_tcpip.o(.data)
    owen_number                              0x0020005f   Data          11  example_tcpip.o(.data)
    versionstring                            0x0020006a   Data          21  example_tcpip.o(.data)
    address1_buffer                          0x0020007f   Data          16  example_tcpip.o(.data)
    APN                                      0x0020008f   Data          16  example_tcpip.o(.data)
    FTP_USER                                 0x0020009f   Data          12  example_tcpip.o(.data)
    FTP_PASS                                 0x002000ab   Data          13  example_tcpip.o(.data)
    FTP_ADDR                                 0x002000b8   Data          14  example_tcpip.o(.data)
    FTP_FILE                                 0x002000c6   Data          18  example_tcpip.o(.data)
    Not_Dota_Command_Receive                 0x002000d8   Data           1  example_tcpip.o(.data)
    gprsupdate_flag                          0x002000d9   Data           1  example_tcpip.o(.data)
    string_start_head                        0x002000da   Data          27  example_tcpip.o(.data)
    port2_buffer                             0x002000f5   Data           5  example_tcpip.o(.data)
    address2_buffer                          0x002000fa   Data          16  example_tcpip.o(.data)
    Image$$EXTSRAMCPU$$ZI$$Base              0x0020010c   Number         0  anon$$obj.o ABSOLUTE
    m_itoa                                   0x0020010c   Data           4  ql_func.o(.bss)
    m_itof                                   0x00200110   Data           4  ql_func.o(.bss)
    m_atof                                   0x00200114   Data           4  ql_func.o(.bss)
    m_strcpy                                 0x00200118   Data           4  ql_func.o(.bss)
    m_strncpy                                0x0020011c   Data           4  ql_func.o(.bss)
    m_strcat                                 0x00200120   Data           4  ql_func.o(.bss)
    m_strncat                                0x00200124   Data           4  ql_func.o(.bss)
    m_strlen                                 0x00200128   Data           4  ql_func.o(.bss)
    m_strcmp                                 0x0020012c   Data           4  ql_func.o(.bss)
    m_strncmp                                0x00200130   Data           4  ql_func.o(.bss)
    m_memset                                 0x00200134   Data           4  ql_func.o(.bss)
    m_memcpy                                 0x00200138   Data           4  ql_func.o(.bss)
    m_memcmp                                 0x0020013c   Data           4  ql_func.o(.bss)
    m_memmove                                0x00200140   Data           4  ql_func.o(.bss)
    m_strstr                                 0x00200144   Data           4  ql_func.o(.bss)
    m_strchr                                 0x00200148   Data           4  ql_func.o(.bss)
    m_SetDebugMode                           0x0020014c   Data           4  ql_func.o(.bss)
    Ql_DebugTrace                            0x00200150   Data           4  ql_func.o(.bss)
    m_GetEvent                               0x00200154   Data           4  ql_func.o(.bss)
    m_Sleep                                  0x00200158   Data           4  ql_func.o(.bss)
    m_Reset                                  0x0020015c   Data           4  ql_func.o(.bss)
    m_PowerDown                              0x00200160   Data           4  ql_func.o(.bss)
    m_PowerOnAck                             0x00200164   Data           4  ql_func.o(.bss)
    m_StartWatchdog                          0x00200168   Data           4  ql_func.o(.bss)
    m_FeedWatchdog                           0x0020016c   Data           4  ql_func.o(.bss)
    m_ReadModuleUID                          0x00200170   Data           4  ql_func.o(.bss)
    m_GetPowerOnReason                       0x00200174   Data           4  ql_func.o(.bss)
    m_GetMemory                              0x00200178   Data           4  ql_func.o(.bss)
    m_FreeMemory                             0x0020017c   Data           4  ql_func.o(.bss)
    m_memMaxCanAllocSize                     0x00200180   Data           4  ql_func.o(.bss)
    m_memTotalLeftSize                       0x00200184   Data           4  ql_func.o(.bss)
    m_FileGetFreeSize                        0x00200188   Data           4  ql_func.o(.bss)
    m_FileOpen                               0x0020018c   Data           4  ql_func.o(.bss)
    m_FileOpenEx                             0x00200190   Data           4  ql_func.o(.bss)
    m_FileRead                               0x00200194   Data           4  ql_func.o(.bss)
    m_FileWrite                              0x00200198   Data           4  ql_func.o(.bss)
    m_FileSeek                               0x0020019c   Data           4  ql_func.o(.bss)
    m_FileGetFilePosition                    0x002001a0   Data           4  ql_func.o(.bss)
    m_FileTruncate                           0x002001a4   Data           4  ql_func.o(.bss)
    m_FileFlush                              0x002001a8   Data           4  ql_func.o(.bss)
    m_FileClose                              0x002001ac   Data           4  ql_func.o(.bss)
    m_FileGetSize                            0x002001b0   Data           4  ql_func.o(.bss)
    m_FileDelete                             0x002001b4   Data           4  ql_func.o(.bss)
    m_FileCheck                              0x002001b8   Data           4  ql_func.o(.bss)
    m_FileRename                             0x002001bc   Data           4  ql_func.o(.bss)
    m_FileCreateDir                          0x002001c0   Data           4  ql_func.o(.bss)
    m_FileRemoveDir                          0x002001c4   Data           4  ql_func.o(.bss)
    m_FileCheckDir                           0x002001c8   Data           4  ql_func.o(.bss)
    m_FileFindFirst                          0x002001cc   Data           4  ql_func.o(.bss)
    m_FileFindNext                           0x002001d0   Data           4  ql_func.o(.bss)
    m_FileFindClose                          0x002001d4   Data           4  ql_func.o(.bss)
    m_FileXDelete                            0x002001d8   Data           4  ql_func.o(.bss)
    m_FileXMove                              0x002001dc   Data           4  ql_func.o(.bss)
    m_FileSys_GetSpaceInfo                   0x002001e0   Data           4  ql_func.o(.bss)
    m_WrtCodeRegion_Init                     0x002001e4   Data           4  ql_func.o(.bss)
    m_WrtCodeRegion_Write                    0x002001e8   Data           4  ql_func.o(.bss)
    m_WrtCodeRegion_Finish                   0x002001ec   Data           4  ql_func.o(.bss)
    m_pinSubscribe                           0x002001f0   Data           4  ql_func.o(.bss)
    m_pinUnSubscribe                         0x002001f4   Data           4  ql_func.o(.bss)
    m_pinQueryMode                           0x002001f8   Data           4  ql_func.o(.bss)
    m_pinRead                                0x002001fc   Data           4  ql_func.o(.bss)
    m_pinWrite                               0x00200200   Data           4  ql_func.o(.bss)
    m_pinControl                             0x00200204   Data           4  ql_func.o(.bss)
    m_eintRead                               0x00200208   Data           4  ql_func.o(.bss)
    m_eintMask                               0x0020020c   Data           4  ql_func.o(.bss)
    m_eintSetPolarity                        0x00200210   Data           4  ql_func.o(.bss)
    m_ReadADC                                0x00200214   Data           4  ql_func.o(.bss)
    m_busSubscribe                           0x00200218   Data           4  ql_func.o(.bss)
    m_busUnSubscribe                         0x0020021c   Data           4  ql_func.o(.bss)
    m_busWrite                               0x00200220   Data           4  ql_func.o(.bss)
    m_busRead                                0x00200224   Data           4  ql_func.o(.bss)
    m_busQuery                               0x00200228   Data           4  ql_func.o(.bss)
    m_PlayAudio                              0x0020022c   Data           4  ql_func.o(.bss)
    m_StopAudio                              0x00200230   Data           4  ql_func.o(.bss)
    m_StartPlayAudioFile                     0x00200234   Data           4  ql_func.o(.bss)
    m_PlayAudioFile_8k                       0x00200238   Data           4  ql_func.o(.bss)
    m_StopAudioFile_8k                       0x0020023c   Data           4  ql_func.o(.bss)
    m_StopPlayAudioFile                      0x00200240   Data           4  ql_func.o(.bss)
    m_StartPlayAudioStream                   0x00200244   Data           4  ql_func.o(.bss)
    m_StopPlayAudioStream                    0x00200248   Data           4  ql_func.o(.bss)
    m_VoiceCallChangePath                    0x0020024c   Data           4  ql_func.o(.bss)
    m_VoiceCallGetCurrentPath                0x00200250   Data           4  ql_func.o(.bss)
    m_SetVolume                              0x00200254   Data           4  ql_func.o(.bss)
    m_SetVolume_Ex                           0x00200258   Data           4  ql_func.o(.bss)
    m_GetVolume                              0x0020025c   Data           4  ql_func.o(.bss)
    m_SetMicGain                             0x00200260   Data           4  ql_func.o(.bss)
    m_GetMicGain                             0x00200264   Data           4  ql_func.o(.bss)
    m_SetSideToneGain                        0x00200268   Data           4  ql_func.o(.bss)
    m_GetSideToneGain                        0x0020026c   Data           4  ql_func.o(.bss)
    m_CtrlEchoCancel                         0x00200270   Data           4  ql_func.o(.bss)
    m_VTS                                    0x00200274   Data           4  ql_func.o(.bss)
    m_StartTimer                             0x00200278   Data           4  ql_func.o(.bss)
    m_StopTimer                              0x0020027c   Data           4  ql_func.o(.bss)
    m_GetLocalTime                           0x00200280   Data           4  ql_func.o(.bss)
    m_SetLocalTime                           0x00200284   Data           4  ql_func.o(.bss)
    m_GetRelativeTime                        0x00200288   Data           4  ql_func.o(.bss)
    m_GetRelativeTime_Counter                0x0020028c   Data           4  ql_func.o(.bss)
    m_SecondToTicks                          0x00200290   Data           4  ql_func.o(.bss)
    m_MillisecondToTicks                     0x00200294   Data           4  ql_func.o(.bss)
    m_Mktime                                 0x00200298   Data           4  ql_func.o(.bss)
    m_StarLowLevelTimer                      0x0020029c   Data           4  ql_func.o(.bss)
    m_StopLowLevelTimer                      0x002002a0   Data           4  ql_func.o(.bss)
    m_OpenModemPort                          0x002002a4   Data           4  ql_func.o(.bss)
    m_SendToModem                            0x002002a8   Data           4  ql_func.o(.bss)
    m_SendToUart                             0x002002ac   Data           4  ql_func.o(.bss)
    m_SetPortRts                             0x002002b0   Data           4  ql_func.o(.bss)
    m_SetUartBaudRate                        0x002002b4   Data           4  ql_func.o(.bss)
    m_SetPortOwner                           0x002002b8   Data           4  ql_func.o(.bss)
    m_SetUartDCBConfig                       0x002002bc   Data           4  ql_func.o(.bss)
    m_SetUartFlowCtrl                        0x002002c0   Data           4  ql_func.o(.bss)
    m_UartGetBytesAvail                      0x002002c4   Data           4  ql_func.o(.bss)
    m_UartGetTxRoomLeft                      0x002002c8   Data           4  ql_func.o(.bss)
    m_UartGetTxRestBytes                     0x002002cc   Data           4  ql_func.o(.bss)
    m_UartConfigEscape                       0x002002d0   Data           4  ql_func.o(.bss)
    m_UartClrTxBuffer                        0x002002d4   Data           4  ql_func.o(.bss)
    m_UartClrRxBuffer                        0x002002d8   Data           4  ql_func.o(.bss)
    m_UartSetGenericThreshold                0x002002dc   Data           4  ql_func.o(.bss)
    m_UartGenericClearFEFlag                 0x002002e0   Data           4  ql_func.o(.bss)
    m_UartSetVfifoThreshold                  0x002002e4   Data           4  ql_func.o(.bss)
    m_UartGetVfifoThresholdInfo              0x002002e8   Data           4  ql_func.o(.bss)
    m_UartMaxGetVfifoThresholdInfo           0x002002ec   Data           4  ql_func.o(.bss)
    m_UartStartVfifoMonitorRxTimeout         0x002002f0   Data           4  ql_func.o(.bss)
    m_UartStopVfifoMonitorRxTimeout          0x002002f4   Data           4  ql_func.o(.bss)
    m_UartDirectnessReadData                 0x002002f8   Data           4  ql_func.o(.bss)
    m_UartQueryDataMode                      0x002002fc   Data           4  ql_func.o(.bss)
    m_UartForceSendEscape                    0x00200300   Data           4  ql_func.o(.bss)
    m_GprsAPNSet                             0x00200304   Data           4  ql_func.o(.bss)
    m_GprsAPNGet                             0x00200308   Data           4  ql_func.o(.bss)
    m_GprsNetworkInitialize                  0x0020030c   Data           4  ql_func.o(.bss)
    m_GprsNetworkUnInitialize                0x00200310   Data           4  ql_func.o(.bss)
    m_GprsNetworkActive                      0x00200314   Data           4  ql_func.o(.bss)
    m_GprsNetworkDeactive                    0x00200318   Data           4  ql_func.o(.bss)
    m_GprsNetworkGetState                    0x0020031c   Data           4  ql_func.o(.bss)
    m_SocketCreate                           0x00200320   Data           4  ql_func.o(.bss)
    m_SocketClose                            0x00200324   Data           4  ql_func.o(.bss)
    m_SocketConnect                          0x00200328   Data           4  ql_func.o(.bss)
    m_SocketSend                             0x0020032c   Data           4  ql_func.o(.bss)
    m_SocketRecv                             0x00200330   Data           4  ql_func.o(.bss)
    m_SocketTcpAckNumber                     0x00200334   Data           4  ql_func.o(.bss)
    m_SocketSendTo                           0x00200338   Data           4  ql_func.o(.bss)
    m_SocketRecvFrom                         0x0020033c   Data           4  ql_func.o(.bss)
    m_SocketBind                             0x00200340   Data           4  ql_func.o(.bss)
    m_SocketListen                           0x00200344   Data           4  ql_func.o(.bss)
    m_SocketAccept                           0x00200348   Data           4  ql_func.o(.bss)
    m_GetHostIpbyName                        0x0020034c   Data           4  ql_func.o(.bss)
    m_GetLocalIpAddress                      0x00200350   Data           4  ql_func.o(.bss)
    m_GetDnsServerAddress                    0x00200354   Data           4  ql_func.o(.bss)
    m_SetDnsServerAddress                    0x00200358   Data           4  ql_func.o(.bss)
    m_SocketCheckIp                          0x0020035c   Data           4  ql_func.o(.bss)
    m_SocketSetSendBufferSize                0x00200360   Data           4  ql_func.o(.bss)
    m_SocketSetRecvBufferSize                0x00200364   Data           4  ql_func.o(.bss)
    m_GetDeviceCurrentRunState               0x00200368   Data           4  ql_func.o(.bss)
    m_SocketHtonl                            0x0020036c   Data           4  ql_func.o(.bss)
    m_SocketHtons                            0x00200370   Data           4  ql_func.o(.bss)
    m_SMSInitialize                          0x00200374   Data           4  ql_func.o(.bss)
    m_SMSUnInitialize                        0x00200378   Data           4  ql_func.o(.bss)
    m_SendTextSMS                            0x0020037c   Data           4  ql_func.o(.bss)
    m_SendPDUSMS                             0x00200380   Data           4  ql_func.o(.bss)
    m_ReadSMS                                0x00200384   Data           4  ql_func.o(.bss)
    m_SetNewSMSCallBack                      0x00200388   Data           4  ql_func.o(.bss)
    m_SetSMSFormat                           0x0020038c   Data           4  ql_func.o(.bss)
    m_GetSMSFormat                           0x00200390   Data           4  ql_func.o(.bss)
    m_SetSMSStorage                          0x00200394   Data           4  ql_func.o(.bss)
    m_DeleteSMS                              0x00200398   Data           4  ql_func.o(.bss)
    m_ReadSMSList                            0x0020039c   Data           4  ql_func.o(.bss)
    m_SetInfoCentreNum                       0x002003a0   Data           4  ql_func.o(.bss)
    m_GetInfoCentreNum                       0x002003a4   Data           4  ql_func.o(.bss)
    m_Call_Initialize                        0x002003a8   Data           4  ql_func.o(.bss)
    m_GetCallCntByType                       0x002003ac   Data           4  ql_func.o(.bss)
    m_Call_Dial                              0x002003b0   Data           4  ql_func.o(.bss)
    m_Call_Answer                            0x002003b4   Data           4  ql_func.o(.bss)
    m_Call_Hangup                            0x002003b8   Data           4  ql_func.o(.bss)
    m_GSM_GetIMEI                            0x002003bc   Data           4  ql_func.o(.bss)
    m_SIM_GetIMSI                            0x002003c0   Data           4  ql_func.o(.bss)
    m_GetCoreVer                             0x002003c4   Data           4  ql_func.o(.bss)
    m_IsSIMInserted                          0x002003c8   Data           4  ql_func.o(.bss)
    m_GetOperator                            0x002003cc   Data           4  ql_func.o(.bss)
    m_RetrieveNodeBInfo                      0x002003d0   Data           4  ql_func.o(.bss)
    m_osSendEvent                            0x002003d4   Data           4  ql_func.o(.bss)
    m_osCreateMutex                          0x002003d8   Data           4  ql_func.o(.bss)
    m_osTakeMutex                            0x002003dc   Data           4  ql_func.o(.bss)
    m_osGiveMutex                            0x002003e0   Data           4  ql_func.o(.bss)
    m_osCreateSemaphore                      0x002003e4   Data           4  ql_func.o(.bss)
    m_osTakeSemaphore                        0x002003e8   Data           4  ql_func.o(.bss)
    m_osGiveSemaphore                        0x002003ec   Data           4  ql_func.o(.bss)
    m_SetLastErrorCode                       0x002003f0   Data           4  ql_func.o(.bss)
    m_GetLastErrorCode                       0x002003f4   Data           4  ql_func.o(.bss)
    m_osGetCurrentTaskPriority               0x002003f8   Data           4  ql_func.o(.bss)
    m_osGetCurrenTaskRemainStackSize         0x002003fc   Data           4  ql_func.o(.bss)
    m_osChangeTaskPriority                   0x00200400   Data           4  ql_func.o(.bss)
    m_Fota_Core_Init                         0x00200404   Data           4  ql_func.o(.bss)
    m_Fota_Core_Write_Data                   0x00200408   Data           4  ql_func.o(.bss)
    m_Fota_Core_Finish                       0x0020040c   Data           4  ql_func.o(.bss)
    m_Fota_App_Init                          0x00200410   Data           4  ql_func.o(.bss)
    m_Fota_App_Write_Data                    0x00200414   Data           4  ql_func.o(.bss)
    m_Fota_App_Finish                        0x00200418   Data           4  ql_func.o(.bss)
    m_Fota_Update                            0x0020041c   Data           4  ql_func.o(.bss)
    m_TTS_Initialize                         0x00200420   Data           4  ql_func.o(.bss)
    m_TTS_Play                               0x00200424   Data           4  ql_func.o(.bss)
    m_TTS_Stop                               0x00200428   Data           4  ql_func.o(.bss)
    m_TTS_Query                              0x0020042c   Data           4  ql_func.o(.bss)
    m_ConvertCodec                           0x00200430   Data           4  ql_func.o(.bss)
    Ql_sprintf                               0x00200434   Data           4  ql_func.o(.bss)
    m_StopWatchdog                           0x00200438   Data           4  ql_func.o(.bss)
    runinfo                                  0x00200440   Data          12  ql_main.o(.bss)
    SubMutitaskArray                         0x0020044c   Data          16  ql_customer_config.o(.bss)
    qlOpenCPUHeapMem                         0x0020045c   Data       10240  ql_customer_config.o(.bss)
    data_key                                 0x00202c5c   Data           1  example_tcpip.o(.bss)
    setting_length_counter                   0x00202c5d   Data           1  example_tcpip.o(.bss)
    GPRMC_STRING_FLAG                        0x00202c5e   Data           1  example_tcpip.o(.bss)
    FTP_START_FLAG                           0x00202c5f   Data           1  example_tcpip.o(.bss)
    MESSAGE_RECEIVED_FLAG                    0x00202c60   Data           1  example_tcpip.o(.bss)
    MESSAGE_SETTING_OK                       0x00202c61   Data           1  example_tcpip.o(.bss)
    MESSAGE_DELETE_COMMAND                   0x00202c62   Data           1  example_tcpip.o(.bss)
    Message_No                               0x00202c63   Data           1  example_tcpip.o(.bss)
    Power_Previous_State                     0x00202c64   Data           1  example_tcpip.o(.bss)
    Power_Current_State                      0x00202c65   Data           1  example_tcpip.o(.bss)
    AC_Previous_State                        0x00202c66   Data           1  example_tcpip.o(.bss)
    AC_Current_State                         0x00202c67   Data           1  example_tcpip.o(.bss)
    Ignition_Previous_State                  0x00202c68   Data           1  example_tcpip.o(.bss)
    Ignition_Current_State                   0x00202c69   Data           1  example_tcpip.o(.bss)
    Door_Previous_State                      0x00202c6a   Data           1  example_tcpip.o(.bss)
    Door_Current_State                       0x00202c6b   Data           1  example_tcpip.o(.bss)
    IP3_Current_State                        0x00202c6c   Data           1  example_tcpip.o(.bss)
    IO_Status_Change                         0x00202c6d   Data           1  example_tcpip.o(.bss)
    RXbuf_end_ptr1                           0x00202c6e   Data           1  example_tcpip.o(.bss)
    fix                                      0x00202c6f   Data           1  example_tcpip.o(.bss)
    fix_status                               0x00202c70   Data           1  example_tcpip.o(.bss)
    GPRS_CONNECTION                          0x00202c71   Data           1  example_tcpip.o(.bss)
    Global_sock                              0x00202c72   Data           1  example_tcpip.o(.bss)
    status_check                             0x00202c73   Data           1  example_tcpip.o(.bss)
    send                                     0x00202c75   Data           1  example_tcpip.o(.bss)
    status                                   0x00202c76   Data           1  example_tcpip.o(.bss)
    temp_key                                 0x00202c78   Data           2  example_tcpip.o(.bss)
    New_temp_key                             0x00202c7a   Data           2  example_tcpip.o(.bss)
    Socket_Buffer_Length                     0x00202c7c   Data           2  example_tcpip.o(.bss)
    idxCmd                                   0x00202c7e   Data           2  example_tcpip.o(.bss)
    msg_idxCmd                               0x00202c80   Data           2  example_tcpip.o(.bss)
    key_buffer                               0x00202c82   Data           2  example_tcpip.o(.bss)
    hex_input                                0x00202c84   Data           2  example_tcpip.o(.bss)
    c                                        0x00202c88   Data           4  example_tcpip.o(.bss)
    ReadPositionStatus                       0x00202c8c   Data           4  example_tcpip.o(.bss)
    WritePositionStatus                      0x00202c90   Data           4  example_tcpip.o(.bss)
    Position1                                0x00202c94   Data           4  example_tcpip.o(.bss)
    nextposition                             0x00202c98   Data           4  example_tcpip.o(.bss)
    Read_nextposition                        0x00202c9c   Data           4  example_tcpip.o(.bss)
    globalpos                                0x00202ca0   Data           4  example_tcpip.o(.bss)
    Update_Timer_Variable                    0x00202cac   Data           4  example_tcpip.o(.bss)
    Position                                 0x00202cb0   Data           4  example_tcpip.o(.bss)
    Read_Position                            0x00202cb4   Data           4  example_tcpip.o(.bss)
    adc_value                                0x00202cb8   Data           4  example_tcpip.o(.bss)
    iret                                     0x00202cbc   Data           4  example_tcpip.o(.bss)
    GlobalFlags                              0x00202cc0   Data           4  example_tcpip.o(.bss)
    hexbuff                                  0x00202cc4   Data           6  example_tcpip.o(.bss)
    send_dataLen                             0x00202ccc   Data           8  example_tcpip.o(.bss)
    tm                                       0x00202cd4   Data           8  example_tcpip.o(.bss)
    timer1min                                0x00202cdc   Data           8  example_tcpip.o(.bss)
    statustimer                              0x00202ce4   Data           8  example_tcpip.o(.bss)
    fota_timer                               0x00202cec   Data           8  example_tcpip.o(.bss)
    filetimer                                0x00202cf4   Data           8  example_tcpip.o(.bss)
    versiontimer                             0x00202cfc   Data           8  example_tcpip.o(.bss)
    IpSettingTimer                           0x00202d04   Data           8  example_tcpip.o(.bss)
    PulseTimer                               0x00202d0c   Data           8  example_tcpip.o(.bss)
    AdcTimer                                 0x00202d14   Data           8  example_tcpip.o(.bss)
    data_p                                   0x00202d1c   Data          80  example_tcpip.o(.bss)
    Uart1_Setting_Buffer                     0x00202d6c   Data          50  example_tcpip.o(.bss)
    Message_Buffer                           0x00202d9e   Data         100  example_tcpip.o(.bss)
    textBuf                                  0x00202e02   Data         100  example_tcpip.o(.bss)
    strBuf                                   0x00202e66   Data         100  example_tcpip.o(.bss)
    flSignalBuffer                           0x00202ecc   Data        1032  example_tcpip.o(.bss)
    prox_data                                0x002032d4   Data          95  example_tcpip.o(.bss)
    GPSString                                0x00203333   Data          82  example_tcpip.o(.bss)
    localdata                                0x00203385   Data          82  example_tcpip.o(.bss)
    uart1_buff                               0x002033d7   Data        2000  example_tcpip.o(.bss)
    finalp                                   0x00203ba7   Data          79  example_tcpip.o(.bss)
    glo_RX_buff                              0x00203bf6   Data          80  example_tcpip.o(.bss)
    time                                     0x00203c46   Data          10  example_tcpip.o(.bss)
    lat                                      0x00203c50   Data          10  example_tcpip.o(.bss)
    lon                                      0x00203c5a   Data          10  example_tcpip.o(.bss)
    speed                                    0x00203c64   Data          10  example_tcpip.o(.bss)
    head                                     0x00203c6e   Data          10  example_tcpip.o(.bss)
    date                                     0x00203c78   Data          10  example_tcpip.o(.bss)
    finalF                                   0x00203c82   Data          63  example_tcpip.o(.bss)
    TempBuffer                               0x00203cc1   Data         100  example_tcpip.o(.bss)
    Socket_Buffer_API                        0x00203d25   Data         100  example_tcpip.o(.bss)
    StringtoSendGprs                         0x00203d89   Data         100  example_tcpip.o(.bss)
    Apn_Setting_Buffer                       0x00203ded   Data          30  example_tcpip.o(.bss)
    GPRMC_STRING_SETTING                     0x00203e0b   Data          55  example_tcpip.o(.bss)
    buffer                                   0x00203e42   Data         100  example_tcpip.o(.bss)
    at_response                              0x00203ea6   Data          20  example_tcpip.o(.bss)
    at_Message_response                      0x00203eba   Data         100  example_tcpip.o(.bss)
    deltabuf                                 0x00203f1e   Data         512  example_tcpip.o(.bss)
    coreBinFile                              0x0020411e   Data         100  example_tcpip.o(.bss)
    appBinFile                               0x00204182   Data         100  example_tcpip.o(.bss)
    setting1_counter                         0x002041e8   Data           1  example_tcpip.o(.bss)
    GPRS_StringLength                        0x002041ea   Data           2  example_tcpip.o(.bss)
    gpscount                                 0x002041ec   Data           1  example_tcpip.o(.bss)
    Uart1_Event_variable                     0x002041f0   Data           4  example_tcpip.o(.bss)
    Uart1_Event_Local_variable               0x002041f4   Data           4  example_tcpip.o(.bss)
    p2                                       0x002041f8   Data           4  example_tcpip.o(.bss)
    p3                                       0x002041fc   Data           4  example_tcpip.o(.bss)
    Uart1_Event_Buffer                       0x00204200   Data          82  example_tcpip.o(.bss)
    Uart1_Event_Local_Buffer                 0x00204252   Data          82  example_tcpip.o(.bss)
    set_para                                 0x002042a4   Data          39  example_tcpip.o(.bss)
    sms_val                                  0x002042cc   Data           4  example_tcpip.o(.bss)
    fall_cnt                                 0x002042d0   Data           4  example_tcpip.o(.bss)
    fix_cnt                                  0x002042d4   Data           4  example_tcpip.o(.bss)
    op_cnt                                   0x002042d8   Data           4  example_tcpip.o(.bss)
    hex_buff                                 0x002042dc   Data           6  example_tcpip.o(.bss)
    hex_input_status                         0x002042e2   Data           2  example_tcpip.o(.bss)
    SERVER_ADD                               0x002042e4   Data          15  example_tcpip.o(.bss)
    fresult                                  0x002042f4   Data           4  example_tcpip.o(.bss)
    input_status                             0x002042f8   Data           1  example_tcpip.o(.bss)
    suppy_removed                            0x002042f9   Data           1  example_tcpip.o(.bss)
    suppy_connected                          0x002042fa   Data           1  example_tcpip.o(.bss)
    intr_check                               0x002042fb   Data           1  example_tcpip.o(.bss)
    ac_sense_on                              0x002042fc   Data           1  example_tcpip.o(.bss)
    ac_sense_off                             0x002042fd   Data           1  example_tcpip.o(.bss)
    panic_external                           0x002042fe   Data           1  example_tcpip.o(.bss)
    mobiliser                                0x002042ff   Data           1  example_tcpip.o(.bss)
    key_talk                                 0x00204300   Data           1  example_tcpip.o(.bss)
    panic_status                             0x00204301   Data           1  example_tcpip.o(.bss)
    fuel                                     0x00204302   Data           1  example_tcpip.o(.bss)
    ignition                                 0x00204303   Data           1  example_tcpip.o(.bss)
    output2                                  0x00204304   Data           1  example_tcpip.o(.bss)
    key_pickup                               0x00204305   Data           1  example_tcpip.o(.bss)
    speed1                                   0x00204306   Data          10  example_tcpip.o(.bss)
    speed2                                   0x00204310   Data          10  example_tcpip.o(.bss)
    speed3                                   0x0020431a   Data          10  example_tcpip.o(.bss)
    GADLENTRY                                0x08640000   Data          44  ql_main.o(GABADISP)
    __16__rt_memcpy_w                        0x08640044   Thumb Code   112  rt_memcpy_w.o(.text)
    __rt_memcpy_w                            0x08640048   ARM Code       0  rt_memcpy_w.o(.text)
    _memcpy_lastbytes                        0x08640094   ARM Code       0  rt_memcpy_w.o(.text)
    __16__rt_udiv                            0x086400b4   Thumb Code   196  rt_udiv.o(.text)
    __rt_udiv                                0x086400b8   ARM Code       0  rt_udiv.o(.text)
    __16__rt_sdiv10                          0x08640178   Thumb Code    68  rtsdiv10.o(.text)
    __rt_sdiv10                              0x0864017c   ARM Code       0  rtsdiv10.o(.text)
    __16__rt_udiv10                          0x086401bc   Thumb Code    48  rtudiv10.o(.text)
    __rt_udiv10                              0x086401c0   ARM Code       0  rtudiv10.o(.text)
    __16__rt_div0                            0x086401ec   Thumb Code    16  rt_div0.o(.text)
    __rt_div0                                0x086401f0   ARM Code       0  rt_div0.o(.text)
    __rt_raise                               0x086401fc   Thumb Code    32  rt_raise.o(.text)
    __32__rt_raise                           0x08640200   ARM Code       0  rt_raise.o(.text)
    __raise                                  0x0864021c   Thumb Code    58  __raise.o(.text)
    __16_sys_exit                            0x08640260   Thumb Code    24  sys_exit.o(.text)
    _sys_exit                                0x08640264   ARM Code       0  sys_exit.o(.text)
    __call_via_r0                            0x0864027c   Thumb Code     4  callvia.o(.text)
    __call_via_r1                            0x0864027e   Thumb Code     4  callvia.o(.text)
    __call_via_r2                            0x08640280   Thumb Code     4  callvia.o(.text)
    __call_via_r3                            0x08640282   Thumb Code     4  callvia.o(.text)
    __call_via_r4                            0x08640284   Thumb Code     4  callvia.o(.text)
    __call_via_r5                            0x08640286   Thumb Code     4  callvia.o(.text)
    __call_via_r6                            0x08640288   Thumb Code     4  callvia.o(.text)
    __call_via_r7                            0x0864028a   Thumb Code     4  callvia.o(.text)
    __default_signal_handler                 0x0864028c   Thumb Code   150  defsig.o(.text)
    __I_use_semihosting_swi                  0x086403a4   Thumb Code     8  use_semi.o(.text)
    __semihosting_swi_guard                  0x086403a4   Thumb Code     0  use_semi.o(.text)
    __32__I_use_semihosting_swi              0x086403a8   ARM Code       0  use_semi.o(.text)
    _ttywrch                                 0x086403ac   Thumb Code    18  sys_wrch.o(.text)
    AdcFunction                              0x086403c0   Thumb Code   226  example_tcpip.o(i.AdcFunction)
    AdcPrepareString                         0x086404ac   Thumb Code   168  example_tcpip.o(i.AdcPrepareString)
    CHECKFLAG                                0x0864056c   Thumb Code    16  example_tcpip.o(i.CHECKFLAG)
    CallBack_GprsAPNGet                      0x08640580   Thumb Code   114  example_tcpip.o(i.CallBack_GprsAPNGet)
    CallBack_GprsAPNSet                      0x08640600   Thumb Code   104  example_tcpip.o(i.CallBack_GprsAPNSet)
    CallBack_getipbyname                     0x08640678   Thumb Code   138  example_tcpip.o(i.CallBack_getipbyname)
    CallBack_network_actived                 0x08640710   Thumb Code   368  example_tcpip.o(i.CallBack_network_actived)
    CallBack_network_deactived               0x08640898   Thumb Code   138  example_tcpip.o(i.CallBack_network_deactived)
    CallBack_socket_accept                   0x0864093c   Thumb Code     2  example_tcpip.o(i.CallBack_socket_accept)
    CallBack_socket_close                    0x08640940   Thumb Code   148  example_tcpip.o(i.CallBack_socket_close)
    CallBack_socket_connect                  0x086409f0   Thumb Code   160  example_tcpip.o(i.CallBack_socket_connect)
    CallBack_socket_read                     0x08640aa8   Thumb Code   792  example_tcpip.o(i.CallBack_socket_read)
    CallBack_socket_write                    0x08640de4   Thumb Code   260  example_tcpip.o(i.CallBack_socket_write)
    Callback_Read_ADC                        0x08640f00   Thumb Code   102  example_tcpip.o(i.Callback_Read_ADC)
    FileSyatem_ReadFunction                  0x08640f78   Thumb Code  1270  example_tcpip.o(i.FileSyatem_ReadFunction)
    GPIOPin_Config                           0x0864147c   Thumb Code  1152  example_tcpip.o(i.GPIOPin_Config)
    GPIO_ReadFunction                        0x08641904   Thumb Code   550  example_tcpip.o(i.GPIO_ReadFunction)
    OpenSetting_File                         0x08641b44   Thumb Code    84  example_tcpip.o(i.OpenSetting_File)
    Power_Supply_Pulse                       0x08641ba8   Thumb Code   126  example_tcpip.o(i.Power_Supply_Pulse)
    PrepareString                            0x08641c3c   Thumb Code   150  example_tcpip.o(i.PrepareString)
    Ql_Call_Answer                           0x08641cec   Thumb Code    26  ql_func.o(i.Ql_Call_Answer)
    Ql_Call_Dial                             0x08641d18   Thumb Code    26  ql_func.o(i.Ql_Call_Dial)
    Ql_Call_Hangup                           0x08641d44   Thumb Code    26  ql_func.o(i.Ql_Call_Hangup)
    Ql_Call_Initialize                       0x08641d70   Thumb Code    26  ql_func.o(i.Ql_Call_Initialize)
    Ql_ConvertCodec                          0x08641d9c   Thumb Code    26  ql_func.o(i.Ql_ConvertCodec)
    Ql_CtrlEchoCancel                        0x08641dc8   Thumb Code    34  ql_func.o(i.Ql_CtrlEchoCancel)
    Ql_DeleteSMS                             0x08641dfc   Thumb Code    26  ql_func.o(i.Ql_DeleteSMS)
    Ql_FeedWatchdog                          0x08641e28   Thumb Code    22  ql_func.o(i.Ql_FeedWatchdog)
    Ql_FileCheck                             0x08641e48   Thumb Code    28  ql_func.o(i.Ql_FileCheck)
    Ql_FileCheckDir                          0x08641e70   Thumb Code    28  ql_func.o(i.Ql_FileCheckDir)
    Ql_FileClose                             0x08641e98   Thumb Code    26  ql_func.o(i.Ql_FileClose)
    Ql_FileCreateDir                         0x08641ebc   Thumb Code    28  ql_func.o(i.Ql_FileCreateDir)
    Ql_FileDelete                            0x08641ee4   Thumb Code    28  ql_func.o(i.Ql_FileDelete)
    Ql_FileFindClose                         0x08641f0c   Thumb Code    26  ql_func.o(i.Ql_FileFindClose)
    Ql_FileFindFirst                         0x08641f30   Thumb Code    36  ql_func.o(i.Ql_FileFindFirst)
    Ql_FileFindNext                          0x08641f60   Thumb Code    36  ql_func.o(i.Ql_FileFindNext)
    Ql_FileFlush                             0x08641f90   Thumb Code    26  ql_func.o(i.Ql_FileFlush)
    Ql_FileGetFilePosition                   0x08641fb4   Thumb Code    28  ql_func.o(i.Ql_FileGetFilePosition)
    Ql_FileGetFreeSize                       0x08641fdc   Thumb Code    24  ql_func.o(i.Ql_FileGetFreeSize)
    Ql_FileGetSize                           0x08642000   Thumb Code    28  ql_func.o(i.Ql_FileGetSize)
    Ql_FileOpen                              0x08642028   Thumb Code    28  ql_func.o(i.Ql_FileOpen)
    Ql_FileOpenEx                            0x08642050   Thumb Code    28  ql_func.o(i.Ql_FileOpenEx)
    Ql_FileRead                              0x08642078   Thumb Code    28  ql_func.o(i.Ql_FileRead)
    Ql_FileRemoveDir                         0x086420a0   Thumb Code    28  ql_func.o(i.Ql_FileRemoveDir)
    Ql_FileRename                            0x086420c8   Thumb Code    28  ql_func.o(i.Ql_FileRename)
    Ql_FileSeek                              0x086420f0   Thumb Code    28  ql_func.o(i.Ql_FileSeek)
    Ql_FileSys_GetSpaceInfo                  0x08642118   Thumb Code    28  ql_func.o(i.Ql_FileSys_GetSpaceInfo)
    Ql_FileTruncate                          0x08642140   Thumb Code    28  ql_func.o(i.Ql_FileTruncate)
    Ql_FileWrite                             0x08642168   Thumb Code    28  ql_func.o(i.Ql_FileWrite)
    Ql_FileXDelete                           0x08642190   Thumb Code    28  ql_func.o(i.Ql_FileXDelete)
    Ql_FileXMove                             0x086421b8   Thumb Code    28  ql_func.o(i.Ql_FileXMove)
    Ql_Fota_App_Finish                       0x086421e0   Thumb Code    24  ql_func.o(i.Ql_Fota_App_Finish)
    Ql_Fota_App_Init                         0x08642204   Thumb Code    24  ql_func.o(i.Ql_Fota_App_Init)
    Ql_Fota_App_Write_Data                   0x08642228   Thumb Code    26  ql_func.o(i.Ql_Fota_App_Write_Data)
    Ql_Fota_Core_Finish                      0x08642254   Thumb Code    24  ql_func.o(i.Ql_Fota_Core_Finish)
    Ql_Fota_Core_Init                        0x08642278   Thumb Code    24  ql_func.o(i.Ql_Fota_Core_Init)
    Ql_Fota_Core_Write_Data                  0x0864229c   Thumb Code    26  ql_func.o(i.Ql_Fota_Core_Write_Data)
    Ql_Fota_Update                           0x086422c8   Thumb Code    26  ql_func.o(i.Ql_Fota_Update)
    Ql_FreeMemory                            0x086422f4   Thumb Code    24  ql_func.o(i.Ql_FreeMemory)
    Ql_GSM_GetIMEI                           0x08642318   Thumb Code    26  ql_func.o(i.Ql_GSM_GetIMEI)
    Ql_GetCallCntByType                      0x08642344   Thumb Code    26  ql_func.o(i.Ql_GetCallCntByType)
    Ql_GetCoreVer                            0x0864236c   Thumb Code    26  ql_func.o(i.Ql_GetCoreVer)
    Ql_GetDeviceCurrentRunState              0x08642398   Thumb Code    32  ql_func.o(i.Ql_GetDeviceCurrentRunState)
    Ql_GetDnsServerAddress                   0x086423c4   Thumb Code    26  ql_func.o(i.Ql_GetDnsServerAddress)
    Ql_GetEvent                              0x086423f0   Thumb Code    22  ql_func.o(i.Ql_GetEvent)
    Ql_GetHostIpbyName                       0x08642410   Thumb Code    48  ql_func.o(i.Ql_GetHostIpbyName)
    Ql_GetInfoCentreNum                      0x08642450   Thumb Code    26  ql_func.o(i.Ql_GetInfoCentreNum)
    Ql_GetLastErrorCode                      0x0864247c   Thumb Code    26  ql_func.o(i.Ql_GetLastErrorCode)
    Ql_GetLocalIpAddress                     0x086424a4   Thumb Code    26  ql_func.o(i.Ql_GetLocalIpAddress)
    Ql_GetLocalTime                          0x086424d0   Thumb Code    26  ql_func.o(i.Ql_GetLocalTime)
    Ql_GetMemory                             0x086424f8   Thumb Code    22  ql_func.o(i.Ql_GetMemory)
    Ql_GetMicGain                            0x08642518   Thumb Code    26  ql_func.o(i.Ql_GetMicGain)
    Ql_GetOperator                           0x08642544   Thumb Code    26  ql_func.o(i.Ql_GetOperator)
    Ql_GetPowerOnReason                      0x08642570   Thumb Code    22  ql_func.o(i.Ql_GetPowerOnReason)
    Ql_GetRelativeTime                       0x08642590   Thumb Code    28  ql_func.o(i.Ql_GetRelativeTime)
    Ql_GetRelativeTime_Counter               0x086425c0   Thumb Code    26  ql_func.o(i.Ql_GetRelativeTime_Counter)
    Ql_GetSDKVer                             0x086425e8   Thumb Code    52  ql_func.o(i.Ql_GetSDKVer)
    Ql_GetSMSFormat                          0x08642620   Thumb Code    28  ql_func.o(i.Ql_GetSMSFormat)
    Ql_GetSideToneGain                       0x08642648   Thumb Code    26  ql_func.o(i.Ql_GetSideToneGain)
    Ql_GetVolume                             0x08642674   Thumb Code    26  ql_func.o(i.Ql_GetVolume)
    Ql_GprsAPNGet                            0x086426a0   Thumb Code    26  ql_func.o(i.Ql_GprsAPNGet)
    Ql_GprsAPNSet                            0x086426cc   Thumb Code    34  ql_func.o(i.Ql_GprsAPNSet)
    Ql_GprsNetworkActive                     0x08642700   Thumb Code    26  ql_func.o(i.Ql_GprsNetworkActive)
    Ql_GprsNetworkDeactive                   0x0864272c   Thumb Code    26  ql_func.o(i.Ql_GprsNetworkDeactive)
    Ql_GprsNetworkGetState                   0x08642758   Thumb Code    26  ql_func.o(i.Ql_GprsNetworkGetState)
    Ql_GprsNetworkInitialize                 0x08642784   Thumb Code    26  ql_func.o(i.Ql_GprsNetworkInitialize)
    Ql_GprsNetworkUnInitialize               0x086427b0   Thumb Code    26  ql_func.o(i.Ql_GprsNetworkUnInitialize)
    Ql_IsSIMInserted                         0x086427dc   Thumb Code    26  ql_func.o(i.Ql_IsSIMInserted)
    Ql_MillisecondToTicks                    0x08642804   Thumb Code    26  ql_func.o(i.Ql_MillisecondToTicks)
    Ql_Mktime                                0x0864282c   Thumb Code    26  ql_func.o(i.Ql_Mktime)
    Ql_OpenModemPort                         0x08642854   Thumb Code    26  ql_func.o(i.Ql_OpenModemPort)
    Ql_PlayAudio                             0x0864287c   Thumb Code    26  ql_func.o(i.Ql_PlayAudio)
    Ql_PlayAudioFile_8k                      0x086428a8   Thumb Code    34  ql_func.o(i.Ql_PlayAudioFile_8k)
    Ql_PowerDown                             0x086428dc   Thumb Code    22  ql_func.o(i.Ql_PowerDown)
    Ql_PowerOnAck                            0x086428fc   Thumb Code    22  ql_func.o(i.Ql_PowerOnAck)
    Ql_ReadADC                               0x0864291c   Thumb Code    26  ql_func.o(i.Ql_ReadADC)
    Ql_ReadModuleUID                         0x08642948   Thumb Code    24  ql_func.o(i.Ql_ReadModuleUID)
    Ql_ReadSMS                               0x0864296c   Thumb Code    26  ql_func.o(i.Ql_ReadSMS)
    Ql_ReadSMSList                           0x08642998   Thumb Code    26  ql_func.o(i.Ql_ReadSMSList)
    Ql_Reset                                 0x086429c4   Thumb Code    22  ql_func.o(i.Ql_Reset)
    Ql_RetrieveNodeBInfo                     0x086429e4   Thumb Code    26  ql_func.o(i.Ql_RetrieveNodeBInfo)
    Ql_SIM_GetIMSI                           0x08642a10   Thumb Code    26  ql_func.o(i.Ql_SIM_GetIMSI)
    Ql_SMSInitialize                         0x08642a3c   Thumb Code    24  ql_func.o(i.Ql_SMSInitialize)
    Ql_SMSUnInitialize                       0x08642a60   Thumb Code    24  ql_func.o(i.Ql_SMSUnInitialize)
    Ql_SecondToTicks                         0x08642a84   Thumb Code    26  ql_func.o(i.Ql_SecondToTicks)
    Ql_SendPDUSMS                            0x08642aac   Thumb Code    26  ql_func.o(i.Ql_SendPDUSMS)
    Ql_SendTextSMS                           0x08642ad8   Thumb Code    26  ql_func.o(i.Ql_SendTextSMS)
    Ql_SendToModem                           0x08642b04   Thumb Code    26  ql_func.o(i.Ql_SendToModem)
    Ql_SendToUart                            0x08642b30   Thumb Code    26  ql_func.o(i.Ql_SendToUart)
    Ql_SetDebugMode                          0x08642b5c   Thumb Code    22  ql_func.o(i.Ql_SetDebugMode)
    Ql_SetDnsServerAddress                   0x08642b7c   Thumb Code    34  ql_func.o(i.Ql_SetDnsServerAddress)
    Ql_SetInfoCentreNum                      0x08642bb0   Thumb Code    26  ql_func.o(i.Ql_SetInfoCentreNum)
    Ql_SetLastErrorCode                      0x08642bdc   Thumb Code    26  ql_func.o(i.Ql_SetLastErrorCode)
    Ql_SetLocalTime                          0x08642c04   Thumb Code    26  ql_func.o(i.Ql_SetLocalTime)
    Ql_SetMicGain                            0x08642c2c   Thumb Code    26  ql_func.o(i.Ql_SetMicGain)
    Ql_SetNewSMSCallBack                     0x08642c58   Thumb Code    24  ql_func.o(i.Ql_SetNewSMSCallBack)
    Ql_SetPortOwner                          0x08642c7c   Thumb Code    26  ql_func.o(i.Ql_SetPortOwner)
    Ql_SetPortRts                            0x08642ca8   Thumb Code    24  ql_func.o(i.Ql_SetPortRts)
    Ql_SetSMSFormat                          0x08642ccc   Thumb Code    26  ql_func.o(i.Ql_SetSMSFormat)
    Ql_SetSMSStorage                         0x08642cf8   Thumb Code    26  ql_func.o(i.Ql_SetSMSStorage)
    Ql_SetSideToneGain                       0x08642d24   Thumb Code    26  ql_func.o(i.Ql_SetSideToneGain)
    Ql_SetUartBaudRate                       0x08642d50   Thumb Code    26  ql_func.o(i.Ql_SetUartBaudRate)
    Ql_SetUartDCBConfig                      0x08642d7c   Thumb Code    34  ql_func.o(i.Ql_SetUartDCBConfig)
    Ql_SetUartFlowCtrl                       0x08642db0   Thumb Code    24  ql_func.o(i.Ql_SetUartFlowCtrl)
    Ql_SetVolume                             0x08642dd4   Thumb Code    26  ql_func.o(i.Ql_SetVolume)
    Ql_SetVolume_Ex                          0x08642e00   Thumb Code    26  ql_func.o(i.Ql_SetVolume_Ex)
    Ql_Sleep                                 0x08642e2c   Thumb Code    22  ql_func.o(i.Ql_Sleep)
    Ql_SocketAccept                          0x08642e4c   Thumb Code    28  ql_func.o(i.Ql_SocketAccept)
    Ql_SocketBind                            0x08642e74   Thumb Code    26  ql_func.o(i.Ql_SocketBind)
    Ql_SocketCheckIp                         0x08642ea0   Thumb Code    26  ql_func.o(i.Ql_SocketCheckIp)
    Ql_SocketClose                           0x08642ecc   Thumb Code    26  ql_func.o(i.Ql_SocketClose)
    Ql_SocketConnect                         0x08642ef8   Thumb Code    26  ql_func.o(i.Ql_SocketConnect)
    Ql_SocketCreate                          0x08642f24   Thumb Code    28  ql_func.o(i.Ql_SocketCreate)
    Ql_SocketHtonl                           0x08642f4c   Thumb Code    26  ql_func.o(i.Ql_SocketHtonl)
    Ql_SocketHtons                           0x08642f74   Thumb Code    26  ql_func.o(i.Ql_SocketHtons)
    Ql_SocketListen                          0x08642f9c   Thumb Code    26  ql_func.o(i.Ql_SocketListen)
    Ql_SocketRecv                            0x08642fc8   Thumb Code    26  ql_func.o(i.Ql_SocketRecv)
    Ql_SocketRecvFrom                        0x08642ff4   Thumb Code    34  ql_func.o(i.Ql_SocketRecvFrom)
    Ql_SocketSend                            0x08643028   Thumb Code    26  ql_func.o(i.Ql_SocketSend)
    Ql_SocketSendTo                          0x08643054   Thumb Code    34  ql_func.o(i.Ql_SocketSendTo)
    Ql_SocketSetRecvBufferSize               0x08643088   Thumb Code    26  ql_func.o(i.Ql_SocketSetRecvBufferSize)
    Ql_SocketSetSendBufferSize               0x086430b4   Thumb Code    26  ql_func.o(i.Ql_SocketSetSendBufferSize)
    Ql_SocketTcpAckNumber                    0x086430e0   Thumb Code    26  ql_func.o(i.Ql_SocketTcpAckNumber)
    Ql_StarLowLevelTimer                     0x0864310c   Thumb Code    26  ql_func.o(i.Ql_StarLowLevelTimer)
    Ql_StartPlayAudioFile                    0x08643134   Thumb Code    26  ql_func.o(i.Ql_StartPlayAudioFile)
    Ql_StartPlayAudioStream                  0x08643160   Thumb Code    42  ql_func.o(i.Ql_StartPlayAudioStream)
    Ql_StartTimer                            0x0864319c   Thumb Code    26  ql_func.o(i.Ql_StartTimer)
    Ql_StartWatchdog                         0x086431c4   Thumb Code    24  ql_func.o(i.Ql_StartWatchdog)
    Ql_StopAudio                             0x086431e4   Thumb Code    26  ql_func.o(i.Ql_StopAudio)
    Ql_StopAudioFile_8k                      0x08643210   Thumb Code    26  ql_func.o(i.Ql_StopAudioFile_8k)
    Ql_StopLowLevelTimer                     0x0864323c   Thumb Code    24  ql_func.o(i.Ql_StopLowLevelTimer)
    Ql_StopPlayAudioFile                     0x08643260   Thumb Code    26  ql_func.o(i.Ql_StopPlayAudioFile)
    Ql_StopPlayAudioStream                   0x0864328c   Thumb Code    26  ql_func.o(i.Ql_StopPlayAudioStream)
    Ql_StopTimer                             0x086432b8   Thumb Code    26  ql_func.o(i.Ql_StopTimer)
    Ql_TTS_Initialize                        0x086432e4   Thumb Code    26  ql_func.o(i.Ql_TTS_Initialize)
    Ql_TTS_Play                              0x08643310   Thumb Code    26  ql_func.o(i.Ql_TTS_Play)
    Ql_TTS_Query                             0x0864333c   Thumb Code    26  ql_func.o(i.Ql_TTS_Query)
    Ql_TTS_Stop                              0x08643368   Thumb Code    26  ql_func.o(i.Ql_TTS_Stop)
    Ql_UartClrRxBuffer                       0x08643394   Thumb Code    24  ql_func.o(i.Ql_UartClrRxBuffer)
    Ql_UartClrTxBuffer                       0x086433b8   Thumb Code    24  ql_func.o(i.Ql_UartClrTxBuffer)
    Ql_UartConfigEscape                      0x086433dc   Thumb Code    26  ql_func.o(i.Ql_UartConfigEscape)
    Ql_UartDirectnessReadData                0x08643404   Thumb Code    26  ql_func.o(i.Ql_UartDirectnessReadData)
    Ql_UartForceSendEscape                   0x08643430   Thumb Code    26  ql_func.o(i.Ql_UartForceSendEscape)
    Ql_UartGenericClearFEFlag                0x08643458   Thumb Code    24  ql_func.o(i.Ql_UartGenericClearFEFlag)
    Ql_UartGetBytesAvail                     0x0864347c   Thumb Code    26  ql_func.o(i.Ql_UartGetBytesAvail)
    Ql_UartGetTxRestBytes                    0x086434a4   Thumb Code    26  ql_func.o(i.Ql_UartGetTxRestBytes)
    Ql_UartGetTxRoomLeft                     0x086434cc   Thumb Code    26  ql_func.o(i.Ql_UartGetTxRoomLeft)
    Ql_UartGetVfifoThresholdInfo             0x086434f4   Thumb Code    34  ql_func.o(i.Ql_UartGetVfifoThresholdInfo)
    Ql_UartMaxGetVfifoThresholdInfo          0x08643524   Thumb Code    34  ql_func.o(i.Ql_UartMaxGetVfifoThresholdInfo)
    Ql_UartQueryDataMode                     0x08643554   Thumb Code    26  ql_func.o(i.Ql_UartQueryDataMode)
    Ql_UartSetGenericThreshold               0x08643580   Thumb Code    26  ql_func.o(i.Ql_UartSetGenericThreshold)
    Ql_UartSetVfifoThreshold                 0x086435a8   Thumb Code    34  ql_func.o(i.Ql_UartSetVfifoThreshold)
    Ql_UartStartVfifoMonitorRxTimeout        0x086435d8   Thumb Code    26  ql_func.o(i.Ql_UartStartVfifoMonitorRxTimeout)
    Ql_UartStopVfifoMonitorRxTimeout         0x08643600   Thumb Code    26  ql_func.o(i.Ql_UartStopVfifoMonitorRxTimeout)
    Ql_VTS                                   0x08643628   Thumb Code    26  ql_func.o(i.Ql_VTS)
    Ql_VoiceCallChangePath                   0x08643654   Thumb Code    26  ql_func.o(i.Ql_VoiceCallChangePath)
    Ql_VoiceCallGetCurrentPath               0x0864367c   Thumb Code    26  ql_func.o(i.Ql_VoiceCallGetCurrentPath)
    Ql_WrtCodeRegion_Finish                  0x086436a4   Thumb Code    26  ql_func.o(i.Ql_WrtCodeRegion_Finish)
    Ql_WrtCodeRegion_Init                    0x086436c8   Thumb Code    26  ql_func.o(i.Ql_WrtCodeRegion_Init)
    Ql_WrtCodeRegion_Write                   0x086436ec   Thumb Code    28  ql_func.o(i.Ql_WrtCodeRegion_Write)
    Ql_atof                                  0x08643714   Thumb Code    26  ql_func.o(i.Ql_atof)
    Ql_busQuery                              0x08643740   Thumb Code    26  ql_func.o(i.Ql_busQuery)
    Ql_busRead                               0x0864376c   Thumb Code    26  ql_func.o(i.Ql_busRead)
    Ql_busSubscribe                          0x08643798   Thumb Code    26  ql_func.o(i.Ql_busSubscribe)
    Ql_busUnSubscribe                        0x086437c4   Thumb Code    26  ql_func.o(i.Ql_busUnSubscribe)
    Ql_busWrite                              0x086437f0   Thumb Code    26  ql_func.o(i.Ql_busWrite)
    Ql_eintMask                              0x0864381c   Thumb Code    24  ql_func.o(i.Ql_eintMask)
    Ql_eintRead                              0x08643840   Thumb Code    26  ql_func.o(i.Ql_eintRead)
    Ql_eintSetPolarity                       0x08643864   Thumb Code    24  ql_func.o(i.Ql_eintSetPolarity)
    Ql_itoa                                  0x08643888   Thumb Code    22  ql_func.o(i.Ql_itoa)
    Ql_itof                                  0x086438a8   Thumb Code    22  ql_func.o(i.Ql_itof)
    Ql_memMaxCanAllocSize                    0x086438c8   Thumb Code    24  ql_func.o(i.Ql_memMaxCanAllocSize)
    Ql_memTotalLeftSize                      0x086438e8   Thumb Code    24  ql_func.o(i.Ql_memTotalLeftSize)
    Ql_memcmp                                0x08643908   Thumb Code    24  ql_func.o(i.Ql_memcmp)
    Ql_memcpy                                0x0864392c   Thumb Code    24  ql_func.o(i.Ql_memcpy)
    Ql_memmove                               0x0864394c   Thumb Code    24  ql_func.o(i.Ql_memmove)
    Ql_memset                                0x0864396c   Thumb Code    24  ql_func.o(i.Ql_memset)
    Ql_osChangeTaskPriority                  0x0864398c   Thumb Code    26  ql_func.o(i.Ql_osChangeTaskPriority)
    Ql_osCreateMutex                         0x086439b4   Thumb Code    26  ql_func.o(i.Ql_osCreateMutex)
    Ql_osCreateSemaphore                     0x086439dc   Thumb Code    26  ql_func.o(i.Ql_osCreateSemaphore)
    Ql_osGetCurrenTaskRemainStackSize        0x08643a04   Thumb Code    26  ql_func.o(i.Ql_osGetCurrenTaskRemainStackSize)
    Ql_osGetCurrentTaskPriority              0x08643a2c   Thumb Code    26  ql_func.o(i.Ql_osGetCurrentTaskPriority)
    Ql_osGiveMutex                           0x08643a54   Thumb Code    24  ql_func.o(i.Ql_osGiveMutex)
    Ql_osGiveSemaphore                       0x08643a78   Thumb Code    24  ql_func.o(i.Ql_osGiveSemaphore)
    Ql_osSendEvent                           0x08643a9c   Thumb Code    26  ql_func.o(i.Ql_osSendEvent)
    Ql_osTakeMutex                           0x08643ac8   Thumb Code    24  ql_func.o(i.Ql_osTakeMutex)
    Ql_osTakeSemaphore                       0x08643aec   Thumb Code    26  ql_func.o(i.Ql_osTakeSemaphore)
    Ql_pinControl                            0x08643b14   Thumb Code    28  ql_func.o(i.Ql_pinControl)
    Ql_pinQueryMode                          0x08643b3c   Thumb Code    28  ql_func.o(i.Ql_pinQueryMode)
    Ql_pinRead                               0x08643b64   Thumb Code    28  ql_func.o(i.Ql_pinRead)
    Ql_pinSubscribe                          0x08643b8c   Thumb Code    28  ql_func.o(i.Ql_pinSubscribe)
    Ql_pinUnSubscribe                        0x08643bb4   Thumb Code    28  ql_func.o(i.Ql_pinUnSubscribe)
    Ql_pinWrite                              0x08643bdc   Thumb Code    28  ql_func.o(i.Ql_pinWrite)
    Ql_strcat                                0x08643c04   Thumb Code    24  ql_func.o(i.Ql_strcat)
    Ql_strchr                                0x08643c24   Thumb Code    24  ql_func.o(i.Ql_strchr)
    Ql_strcmp                                0x08643c44   Thumb Code    24  ql_func.o(i.Ql_strcmp)
    Ql_strcpy                                0x08643c68   Thumb Code    24  ql_func.o(i.Ql_strcpy)
    Ql_strlen                                0x08643c88   Thumb Code    24  ql_func.o(i.Ql_strlen)
    Ql_strncat                               0x08643ca8   Thumb Code    24  ql_func.o(i.Ql_strncat)
    Ql_strncmp                               0x08643cc8   Thumb Code    24  ql_func.o(i.Ql_strncmp)
    Ql_strncpy                               0x08643cec   Thumb Code    24  ql_func.o(i.Ql_strncpy)
    Ql_strstr                                0x08643d0c   Thumb Code    24  ql_func.o(i.Ql_strstr)
    RESETFLAG                                0x08643d2c   Thumb Code    10  example_tcpip.o(i.RESETFLAG)
    SETFLAG                                  0x08643d3c   Thumb Code    10  example_tcpip.o(i.SETFLAG)
    SendAtCmd                                0x08643d4c   Thumb Code   730  example_tcpip.o(i.SendAtCmd)
    SendAtCmd_Message_Read                   0x08644058   Thumb Code   174  example_tcpip.o(i.SendAtCmd_Message_Read)
    SendGPS_Setting                          0x08644120   Thumb Code   170  example_tcpip.o(i.SendGPS_Setting)
    Send_GSMVersionString                    0x086441d0   Thumb Code   138  example_tcpip.o(i.Send_GSMVersionString)
    Socket_DataSend_Function                 0x08644278   Thumb Code    96  example_tcpip.o(i.Socket_DataSend_Function)
    Uart1_setting_received                   0x086442ec   Thumb Code  1118  example_tcpip.o(i.Uart1_setting_received)
    adcsend_function                         0x08644750   Thumb Code  1164  example_tcpip.o(i.adcsend_function)
    filesystem_function                      0x08644be8   Thumb Code  1236  example_tcpip.o(i.filesystem_function)
    io_send                                  0x086450c8   Thumb Code    34  example_tcpip.o(i.io_send)
    iosend_function                          0x086450f8   Thumb Code  1266  example_tcpip.o(i.iosend_function)
    key_send                                 0x08645600   Thumb Code    26  example_tcpip.o(i.key_send)
    openfile1                                0x08645628   Thumb Code    82  example_tcpip.o(i.openfile1)
    openfile2                                0x08645690   Thumb Code    82  example_tcpip.o(i.openfile2)
    ql_InitVFunc                             0x086456f8   Thumb Code  3706  ql_main.o(i.ql_InitVFunc)
    ql_entry                                 0x086465a4   Thumb Code  4888  example_tcpip.o(i.ql_entry)
    ql_main                                  0x086478d8   Thumb Code    90  ql_main.o(i.ql_main)
    save_new_Apn_settings                    0x08647940   Thumb Code   282  example_tcpip.o(i.save_new_Apn_settings)
    save_new_OwnNumber_settings              0x08647a70   Thumb Code   278  example_tcpip.o(i.save_new_OwnNumber_settings)
    save_new_Update_timer_settings           0x08647b9c   Thumb Code   258  example_tcpip.o(i.save_new_Update_timer_settings)
    save_new_ip_settings                     0x08647cbc   Thumb Code   726  example_tcpip.o(i.save_new_ip_settings)
    subusr1_func                             0x08647fc4   Thumb Code     4  subusr1.o(i.subusr1_func)
    uart1_datahandler                        0x08647fc8   Thumb Code   810  example_tcpip.o(i.uart1_datahandler)
    uart2_datahandler                        0x08648304   Thumb Code  1430  example_tcpip.o(i.uart2_datahandler)
    user1_func                               0x086488a4   Thumb Code     4  user1.o(i.user1_func)
    user2_func                               0x086488a8   Thumb Code     4  user2.o(i.user2_func)
    funcRegionInit                           0x086488ac   ARM Code       0  image2dlms.o(init)
    Customer_user_qlconfig                   0x0864b24c   Data          24  ql_customer_gpio.o(.constdata)
    Customer_QlPinConfigTable                0x0864b264   Data        1012  ql_customer_gpio.o(.constdata)
    qlOpenCPUHeapMemSize                     0x0864b658   Data           4  ql_customer_config.o(.constdata)
    qlMainTaskStackSize                      0x0864b65c   Data           4  ql_customer_config.o(.constdata)
    qlMainTaskPriority                       0x0864b660   Data           4  ql_customer_config.o(.constdata)
    qlMainTaskExtqsize                       0x0864b664   Data           4  ql_customer_config.o(.constdata)
    Load$$EXTSRAMCPU$$Base                   0x0864c628   Number         0  anon$$obj.o ABSOLUTE
    __SIG_IGN                                0xfffffffd   Number         0  sigdefs.o ABSOLUTE
    __SIG_ERR                                0xfffffffe   Number         0  sigdefs.o ABSOLUTE
    __SIG_DFL                                0xffffffff   Number         0  sigdefs.o ABSOLUTE


================================================================================

Memory Map of the image

  Image entry point : Not specified.

  Load Region ROM (Base: 0x08640000, Size: 0x0000c734, Max: 0x00100000, ABSOLUTE)

    Execution Region ROMCPU0 (Base: 0x08640000, Size: 0x00000044, Max: 0xffffffff, ABSOLUTE)

    Base Addr    Size         Type   Attr  Idx  E Section Name        Object

    0x08640000   0x00000044   Data   RO   417     GABADISP            ql_main.o(app_start.lib)


    Execution Region ROMCPU1 (Base: 0x08640044, Size: 0x0000c5e4, Max: 0xffffffff, ABSOLUTE)

    Base Addr    Size         Type   Attr  Idx  E Section Name        Object

    0x08640044   0x00000070   Code   RO   565     .text               rt_memcpy_w.o(c_t__un.l)
    0x086400b4   0x000000c4   Code   RO   567     .text               rt_udiv.o(c_t__un.l)
    0x08640178   0x00000044   Code   RO   569     .text               rtsdiv10.o(c_t__un.l)
    0x086401bc   0x00000030   Code   RO   571     .text               rtudiv10.o(c_t__un.l)
    0x086401ec   0x00000010   Code   RO   576     .text               rt_div0.o(c_t__un.l)
    0x086401fc   0x00000020   Code   RO   582     .text               rt_raise.o(c_t__un.l)
    0x0864021c   0x00000044   Code   RO   584     .text               __raise.o(c_t__un.l)
    0x08640260   0x0000001c   Code   RO   586     .text               sys_exit.o(c_t__un.l)
    0x0864027c   0x00000010   Code   RO   588     .text               callvia.o(c_t__un.l)
    0x0864028c   0x00000118   Code   RO   589     .text               defsig.o(c_t__un.l)
    0x086403a4   0x00000008   Code   RO   593     .text               use_semi.o(c_t__un.l)
    0x086403ac   0x00000014   Code   RO   595     .text               sys_wrch.o(c_t__un.l)
    0x086403c0   0x000000ec   Code   RO   460     i.AdcFunction       example_tcpip.o
    0x086404ac   0x000000c0   Code   RO   449     i.AdcPrepareString  example_tcpip.o
    0x0864056c   0x00000014   Code   RO   434     i.CHECKFLAG         example_tcpip.o
    0x08640580   0x00000080   Code   RO   465     i.CallBack_GprsAPNGet  example_tcpip.o
    0x08640600   0x00000078   Code   RO   466     i.CallBack_GprsAPNSet  example_tcpip.o
    0x08640678   0x00000098   Code   RO   470     i.CallBack_getipbyname  example_tcpip.o
    0x08640710   0x00000188   Code   RO   468     i.CallBack_network_actived  example_tcpip.o
    0x08640898   0x000000a4   Code   RO   469     i.CallBack_network_deactived  example_tcpip.o
    0x0864093c   0x00000004   Code   RO   473     i.CallBack_socket_accept  example_tcpip.o
    0x08640940   0x000000b0   Code   RO   472     i.CallBack_socket_close  example_tcpip.o
    0x086409f0   0x000000b8   Code   RO   471     i.CallBack_socket_connect  example_tcpip.o
    0x08640aa8   0x0000033c   Code   RO   474     i.CallBack_socket_read  example_tcpip.o
    0x08640de4   0x0000011c   Code   RO   475     i.CallBack_socket_write  example_tcpip.o
    0x08640f00   0x00000078   Code   RO   464     i.Callback_Read_ADC  example_tcpip.o
    0x08640f78   0x00000504   Code   RO   452     i.FileSyatem_ReadFunction  example_tcpip.o
    0x0864147c   0x00000488   Code   RO   446     i.GPIOPin_Config    example_tcpip.o
    0x08641904   0x00000240   Code   RO   455     i.GPIO_ReadFunction  example_tcpip.o
    0x08641b44   0x00000064   Code   RO   438     i.OpenSetting_File  example_tcpip.o
    0x08641ba8   0x00000094   Code   RO   456     i.Power_Supply_Pulse  example_tcpip.o
    0x08641c3c   0x000000b0   Code   RO   448     i.PrepareString     example_tcpip.o
    0x08641cec   0x0000002c   Code   RO   175     i.Ql_Call_Answer    ql_func.o(app_start.lib)
    0x08641d18   0x0000002c   Code   RO   174     i.Ql_Call_Dial      ql_func.o(app_start.lib)
    0x08641d44   0x0000002c   Code   RO   176     i.Ql_Call_Hangup    ql_func.o(app_start.lib)
    0x08641d70   0x0000002c   Code   RO   172     i.Ql_Call_Initialize  ql_func.o(app_start.lib)
    0x08641d9c   0x0000002c   Code   RO   206     i.Ql_ConvertCodec   ql_func.o(app_start.lib)
    0x08641dc8   0x00000034   Code   RO    94     i.Ql_CtrlEchoCancel  ql_func.o(app_start.lib)
    0x08641dfc   0x0000002c   Code   RO   168     i.Ql_DeleteSMS      ql_func.o(app_start.lib)
    0x08641e28   0x00000020   Code   RO    28     i.Ql_FeedWatchdog   ql_func.o(app_start.lib)
    0x08641e48   0x00000028   Code   RO    48     i.Ql_FileCheck      ql_func.o(app_start.lib)
    0x08641e70   0x00000028   Code   RO    52     i.Ql_FileCheckDir   ql_func.o(app_start.lib)
    0x08641e98   0x00000024   Code   RO    45     i.Ql_FileClose      ql_func.o(app_start.lib)
    0x08641ebc   0x00000028   Code   RO    50     i.Ql_FileCreateDir  ql_func.o(app_start.lib)
    0x08641ee4   0x00000028   Code   RO    47     i.Ql_FileDelete     ql_func.o(app_start.lib)
    0x08641f0c   0x00000024   Code   RO    55     i.Ql_FileFindClose  ql_func.o(app_start.lib)
    0x08641f30   0x00000030   Code   RO    53     i.Ql_FileFindFirst  ql_func.o(app_start.lib)
    0x08641f60   0x00000030   Code   RO    54     i.Ql_FileFindNext   ql_func.o(app_start.lib)
    0x08641f90   0x00000024   Code   RO    44     i.Ql_FileFlush      ql_func.o(app_start.lib)
    0x08641fb4   0x00000028   Code   RO    42     i.Ql_FileGetFilePosition  ql_func.o(app_start.lib)
    0x08641fdc   0x00000024   Code   RO    36     i.Ql_FileGetFreeSize  ql_func.o(app_start.lib)
    0x08642000   0x00000028   Code   RO    46     i.Ql_FileGetSize    ql_func.o(app_start.lib)
    0x08642028   0x00000028   Code   RO    37     i.Ql_FileOpen       ql_func.o(app_start.lib)
    0x08642050   0x00000028   Code   RO    38     i.Ql_FileOpenEx     ql_func.o(app_start.lib)
    0x08642078   0x00000028   Code   RO    39     i.Ql_FileRead       ql_func.o(app_start.lib)
    0x086420a0   0x00000028   Code   RO    51     i.Ql_FileRemoveDir  ql_func.o(app_start.lib)
    0x086420c8   0x00000028   Code   RO    49     i.Ql_FileRename     ql_func.o(app_start.lib)
    0x086420f0   0x00000028   Code   RO    41     i.Ql_FileSeek       ql_func.o(app_start.lib)
    0x08642118   0x00000028   Code   RO    58     i.Ql_FileSys_GetSpaceInfo  ql_func.o(app_start.lib)
    0x08642140   0x00000028   Code   RO    43     i.Ql_FileTruncate   ql_func.o(app_start.lib)
    0x08642168   0x00000028   Code   RO    40     i.Ql_FileWrite      ql_func.o(app_start.lib)
    0x08642190   0x00000028   Code   RO    56     i.Ql_FileXDelete    ql_func.o(app_start.lib)
    0x086421b8   0x00000028   Code   RO    57     i.Ql_FileXMove      ql_func.o(app_start.lib)
    0x086421e0   0x00000024   Code   RO   200     i.Ql_Fota_App_Finish  ql_func.o(app_start.lib)
    0x08642204   0x00000024   Code   RO   198     i.Ql_Fota_App_Init  ql_func.o(app_start.lib)
    0x08642228   0x0000002c   Code   RO   199     i.Ql_Fota_App_Write_Data  ql_func.o(app_start.lib)
    0x08642254   0x00000024   Code   RO   197     i.Ql_Fota_Core_Finish  ql_func.o(app_start.lib)
    0x08642278   0x00000024   Code   RO   195     i.Ql_Fota_Core_Init  ql_func.o(app_start.lib)
    0x0864229c   0x0000002c   Code   RO   196     i.Ql_Fota_Core_Write_Data  ql_func.o(app_start.lib)
    0x086422c8   0x0000002c   Code   RO   201     i.Ql_Fota_Update    ql_func.o(app_start.lib)
    0x086422f4   0x00000024   Code   RO    33     i.Ql_FreeMemory     ql_func.o(app_start.lib)
    0x08642318   0x0000002c   Code   RO   177     i.Ql_GSM_GetIMEI    ql_func.o(app_start.lib)
    0x08642344   0x00000028   Code   RO   173     i.Ql_GetCallCntByType  ql_func.o(app_start.lib)
    0x0864236c   0x0000002c   Code   RO   179     i.Ql_GetCoreVer     ql_func.o(app_start.lib)
    0x08642398   0x0000002c   Code   RO   156     i.Ql_GetDeviceCurrentRunState  ql_func.o(app_start.lib)
    0x086423c4   0x0000002c   Code   RO   151     i.Ql_GetDnsServerAddress  ql_func.o(app_start.lib)
    0x086423f0   0x00000020   Code   RO    22     i.Ql_GetEvent       ql_func.o(app_start.lib)
    0x08642410   0x00000040   Code   RO   149     i.Ql_GetHostIpbyName  ql_func.o(app_start.lib)
    0x08642450   0x0000002c   Code   RO   171     i.Ql_GetInfoCentreNum  ql_func.o(app_start.lib)
    0x0864247c   0x00000028   Code   RO   191     i.Ql_GetLastErrorCode  ql_func.o(app_start.lib)
    0x086424a4   0x0000002c   Code   RO   150     i.Ql_GetLocalIpAddress  ql_func.o(app_start.lib)
    0x086424d0   0x00000028   Code   RO    98     i.Ql_GetLocalTime   ql_func.o(app_start.lib)
    0x086424f8   0x00000020   Code   RO    32     i.Ql_GetMemory      ql_func.o(app_start.lib)
    0x08642518   0x0000002c   Code   RO    91     i.Ql_GetMicGain     ql_func.o(app_start.lib)
    0x08642544   0x0000002c   Code   RO   181     i.Ql_GetOperator    ql_func.o(app_start.lib)
    0x08642570   0x00000020   Code   RO    31     i.Ql_GetPowerOnReason  ql_func.o(app_start.lib)
    0x08642590   0x00000030   Code   RO   100     i.Ql_GetRelativeTime  ql_func.o(app_start.lib)
    0x086425c0   0x00000028   Code   RO   101     i.Ql_GetRelativeTime_Counter  ql_func.o(app_start.lib)
    0x086425e8   0x00000038   Code   RO    30     i.Ql_GetSDKVer      ql_func.o(app_start.lib)
    0x08642620   0x00000028   Code   RO   166     i.Ql_GetSMSFormat   ql_func.o(app_start.lib)
    0x08642648   0x0000002c   Code   RO    93     i.Ql_GetSideToneGain  ql_func.o(app_start.lib)
    0x08642674   0x0000002c   Code   RO    89     i.Ql_GetVolume      ql_func.o(app_start.lib)
    0x086426a0   0x0000002c   Code   RO   132     i.Ql_GprsAPNGet     ql_func.o(app_start.lib)
    0x086426cc   0x00000034   Code   RO   131     i.Ql_GprsAPNSet     ql_func.o(app_start.lib)
    0x08642700   0x0000002c   Code   RO   135     i.Ql_GprsNetworkActive  ql_func.o(app_start.lib)
    0x0864272c   0x0000002c   Code   RO   136     i.Ql_GprsNetworkDeactive  ql_func.o(app_start.lib)
    0x08642758   0x0000002c   Code   RO   137     i.Ql_GprsNetworkGetState  ql_func.o(app_start.lib)
    0x08642784   0x0000002c   Code   RO   133     i.Ql_GprsNetworkInitialize  ql_func.o(app_start.lib)
    0x086427b0   0x0000002c   Code   RO   134     i.Ql_GprsNetworkUnInitialize  ql_func.o(app_start.lib)
    0x086427dc   0x00000028   Code   RO   180     i.Ql_IsSIMInserted  ql_func.o(app_start.lib)
    0x08642804   0x00000028   Code   RO   103     i.Ql_MillisecondToTicks  ql_func.o(app_start.lib)
    0x0864282c   0x00000028   Code   RO   104     i.Ql_Mktime         ql_func.o(app_start.lib)
    0x08642854   0x00000028   Code   RO   107     i.Ql_OpenModemPort  ql_func.o(app_start.lib)
    0x0864287c   0x0000002c   Code   RO    77     i.Ql_PlayAudio      ql_func.o(app_start.lib)
    0x086428a8   0x00000034   Code   RO    80     i.Ql_PlayAudioFile_8k  ql_func.o(app_start.lib)
    0x086428dc   0x00000020   Code   RO    25     i.Ql_PowerDown      ql_func.o(app_start.lib)
    0x086428fc   0x00000020   Code   RO    26     i.Ql_PowerOnAck     ql_func.o(app_start.lib)
    0x0864291c   0x0000002c   Code   RO    71     i.Ql_ReadADC        ql_func.o(app_start.lib)
    0x08642948   0x00000024   Code   RO    29     i.Ql_ReadModuleUID  ql_func.o(app_start.lib)
    0x0864296c   0x0000002c   Code   RO   163     i.Ql_ReadSMS        ql_func.o(app_start.lib)
    0x08642998   0x0000002c   Code   RO   169     i.Ql_ReadSMSList    ql_func.o(app_start.lib)
    0x086429c4   0x00000020   Code   RO    24     i.Ql_Reset          ql_func.o(app_start.lib)
    0x086429e4   0x0000002c   Code   RO   182     i.Ql_RetrieveNodeBInfo  ql_func.o(app_start.lib)
    0x08642a10   0x0000002c   Code   RO   178     i.Ql_SIM_GetIMSI    ql_func.o(app_start.lib)
    0x08642a3c   0x00000024   Code   RO   159     i.Ql_SMSInitialize  ql_func.o(app_start.lib)
    0x08642a60   0x00000024   Code   RO   160     i.Ql_SMSUnInitialize  ql_func.o(app_start.lib)
    0x08642a84   0x00000028   Code   RO   102     i.Ql_SecondToTicks  ql_func.o(app_start.lib)
    0x08642aac   0x0000002c   Code   RO   162     i.Ql_SendPDUSMS     ql_func.o(app_start.lib)
    0x08642ad8   0x0000002c   Code   RO   161     i.Ql_SendTextSMS    ql_func.o(app_start.lib)
    0x08642b04   0x0000002c   Code   RO   108     i.Ql_SendToModem    ql_func.o(app_start.lib)
    0x08642b30   0x0000002c   Code   RO   109     i.Ql_SendToUart     ql_func.o(app_start.lib)
    0x08642b5c   0x00000020   Code   RO    21     i.Ql_SetDebugMode   ql_func.o(app_start.lib)
    0x08642b7c   0x00000034   Code   RO   152     i.Ql_SetDnsServerAddress  ql_func.o(app_start.lib)
    0x08642bb0   0x0000002c   Code   RO   170     i.Ql_SetInfoCentreNum  ql_func.o(app_start.lib)
    0x08642bdc   0x00000028   Code   RO   190     i.Ql_SetLastErrorCode  ql_func.o(app_start.lib)
    0x08642c04   0x00000028   Code   RO    99     i.Ql_SetLocalTime   ql_func.o(app_start.lib)
    0x08642c2c   0x0000002c   Code   RO    90     i.Ql_SetMicGain     ql_func.o(app_start.lib)
    0x08642c58   0x00000024   Code   RO   164     i.Ql_SetNewSMSCallBack  ql_func.o(app_start.lib)
    0x08642c7c   0x0000002c   Code   RO   112     i.Ql_SetPortOwner   ql_func.o(app_start.lib)
    0x08642ca8   0x00000024   Code   RO   110     i.Ql_SetPortRts     ql_func.o(app_start.lib)
    0x08642ccc   0x0000002c   Code   RO   165     i.Ql_SetSMSFormat   ql_func.o(app_start.lib)
    0x08642cf8   0x0000002c   Code   RO   167     i.Ql_SetSMSStorage  ql_func.o(app_start.lib)
    0x08642d24   0x0000002c   Code   RO    92     i.Ql_SetSideToneGain  ql_func.o(app_start.lib)
    0x08642d50   0x0000002c   Code   RO   111     i.Ql_SetUartBaudRate  ql_func.o(app_start.lib)
    0x08642d7c   0x00000034   Code   RO   113     i.Ql_SetUartDCBConfig  ql_func.o(app_start.lib)
    0x08642db0   0x00000024   Code   RO   114     i.Ql_SetUartFlowCtrl  ql_func.o(app_start.lib)
    0x08642dd4   0x0000002c   Code   RO    87     i.Ql_SetVolume      ql_func.o(app_start.lib)
    0x08642e00   0x0000002c   Code   RO    88     i.Ql_SetVolume_Ex   ql_func.o(app_start.lib)
    0x08642e2c   0x00000020   Code   RO    23     i.Ql_Sleep          ql_func.o(app_start.lib)
    0x08642e4c   0x00000028   Code   RO   148     i.Ql_SocketAccept   ql_func.o(app_start.lib)
    0x08642e74   0x0000002c   Code   RO   146     i.Ql_SocketBind     ql_func.o(app_start.lib)
    0x08642ea0   0x0000002c   Code   RO   153     i.Ql_SocketCheckIp  ql_func.o(app_start.lib)
    0x08642ecc   0x0000002c   Code   RO   139     i.Ql_SocketClose    ql_func.o(app_start.lib)
    0x08642ef8   0x0000002c   Code   RO   140     i.Ql_SocketConnect  ql_func.o(app_start.lib)
    0x08642f24   0x00000028   Code   RO   138     i.Ql_SocketCreate   ql_func.o(app_start.lib)
    0x08642f4c   0x00000028   Code   RO   157     i.Ql_SocketHtonl    ql_func.o(app_start.lib)
    0x08642f74   0x00000028   Code   RO   158     i.Ql_SocketHtons    ql_func.o(app_start.lib)
    0x08642f9c   0x0000002c   Code   RO   147     i.Ql_SocketListen   ql_func.o(app_start.lib)
    0x08642fc8   0x0000002c   Code   RO   142     i.Ql_SocketRecv     ql_func.o(app_start.lib)
    0x08642ff4   0x00000034   Code   RO   145     i.Ql_SocketRecvFrom  ql_func.o(app_start.lib)
    0x08643028   0x0000002c   Code   RO   141     i.Ql_SocketSend     ql_func.o(app_start.lib)
    0x08643054   0x00000034   Code   RO   144     i.Ql_SocketSendTo   ql_func.o(app_start.lib)
    0x08643088   0x0000002c   Code   RO   155     i.Ql_SocketSetRecvBufferSize  ql_func.o(app_start.lib)
    0x086430b4   0x0000002c   Code   RO   154     i.Ql_SocketSetSendBufferSize  ql_func.o(app_start.lib)
    0x086430e0   0x0000002c   Code   RO   143     i.Ql_SocketTcpAckNumber  ql_func.o(app_start.lib)
    0x0864310c   0x00000028   Code   RO   105     i.Ql_StarLowLevelTimer  ql_func.o(app_start.lib)
    0x08643134   0x0000002c   Code   RO    79     i.Ql_StartPlayAudioFile  ql_func.o(app_start.lib)
    0x08643160   0x0000003c   Code   RO    83     i.Ql_StartPlayAudioStream  ql_func.o(app_start.lib)
    0x0864319c   0x00000028   Code   RO    96     i.Ql_StartTimer     ql_func.o(app_start.lib)
    0x086431c4   0x00000020   Code   RO    27     i.Ql_StartWatchdog  ql_func.o(app_start.lib)
    0x086431e4   0x0000002c   Code   RO    78     i.Ql_StopAudio      ql_func.o(app_start.lib)
    0x08643210   0x0000002c   Code   RO    81     i.Ql_StopAudioFile_8k  ql_func.o(app_start.lib)
    0x0864323c   0x00000024   Code   RO   106     i.Ql_StopLowLevelTimer  ql_func.o(app_start.lib)
    0x08643260   0x0000002c   Code   RO    82     i.Ql_StopPlayAudioFile  ql_func.o(app_start.lib)
    0x0864328c   0x0000002c   Code   RO    84     i.Ql_StopPlayAudioStream  ql_func.o(app_start.lib)
    0x086432b8   0x0000002c   Code   RO    97     i.Ql_StopTimer      ql_func.o(app_start.lib)
    0x086432e4   0x0000002c   Code   RO   202     i.Ql_TTS_Initialize  ql_func.o(app_start.lib)
    0x08643310   0x0000002c   Code   RO   203     i.Ql_TTS_Play       ql_func.o(app_start.lib)
    0x0864333c   0x0000002c   Code   RO   205     i.Ql_TTS_Query      ql_func.o(app_start.lib)
    0x08643368   0x0000002c   Code   RO   204     i.Ql_TTS_Stop       ql_func.o(app_start.lib)
    0x08643394   0x00000024   Code   RO   120     i.Ql_UartClrRxBuffer  ql_func.o(app_start.lib)
    0x086433b8   0x00000024   Code   RO   119     i.Ql_UartClrTxBuffer  ql_func.o(app_start.lib)
    0x086433dc   0x00000028   Code   RO   118     i.Ql_UartConfigEscape  ql_func.o(app_start.lib)
    0x08643404   0x0000002c   Code   RO   128     i.Ql_UartDirectnessReadData  ql_func.o(app_start.lib)
    0x08643430   0x00000028   Code   RO   130     i.Ql_UartForceSendEscape  ql_func.o(app_start.lib)
    0x08643458   0x00000024   Code   RO   122     i.Ql_UartGenericClearFEFlag  ql_func.o(app_start.lib)
    0x0864347c   0x00000028   Code   RO   115     i.Ql_UartGetBytesAvail  ql_func.o(app_start.lib)
    0x086434a4   0x00000028   Code   RO   117     i.Ql_UartGetTxRestBytes  ql_func.o(app_start.lib)
    0x086434cc   0x00000028   Code   RO   116     i.Ql_UartGetTxRoomLeft  ql_func.o(app_start.lib)
    0x086434f4   0x00000030   Code   RO   124     i.Ql_UartGetVfifoThresholdInfo  ql_func.o(app_start.lib)
    0x08643524   0x00000030   Code   RO   125     i.Ql_UartMaxGetVfifoThresholdInfo  ql_func.o(app_start.lib)
    0x08643554   0x0000002c   Code   RO   129     i.Ql_UartQueryDataMode  ql_func.o(app_start.lib)
    0x08643580   0x00000028   Code   RO   121     i.Ql_UartSetGenericThreshold  ql_func.o(app_start.lib)
    0x086435a8   0x00000030   Code   RO   123     i.Ql_UartSetVfifoThreshold  ql_func.o(app_start.lib)
    0x086435d8   0x00000028   Code   RO   126     i.Ql_UartStartVfifoMonitorRxTimeout  ql_func.o(app_start.lib)
    0x08643600   0x00000028   Code   RO   127     i.Ql_UartStopVfifoMonitorRxTimeout  ql_func.o(app_start.lib)
    0x08643628   0x0000002c   Code   RO    95     i.Ql_VTS            ql_func.o(app_start.lib)
    0x08643654   0x00000028   Code   RO    85     i.Ql_VoiceCallChangePath  ql_func.o(app_start.lib)
    0x0864367c   0x00000028   Code   RO    86     i.Ql_VoiceCallGetCurrentPath  ql_func.o(app_start.lib)
    0x086436a4   0x00000024   Code   RO    61     i.Ql_WrtCodeRegion_Finish  ql_func.o(app_start.lib)
    0x086436c8   0x00000024   Code   RO    59     i.Ql_WrtCodeRegion_Init  ql_func.o(app_start.lib)
    0x086436ec   0x00000028   Code   RO    60     i.Ql_WrtCodeRegion_Write  ql_func.o(app_start.lib)
    0x08643714   0x0000002c   Code   RO     7     i.Ql_atof           ql_func.o(app_start.lib)
    0x08643740   0x0000002c   Code   RO    76     i.Ql_busQuery       ql_func.o(app_start.lib)
    0x0864376c   0x0000002c   Code   RO    75     i.Ql_busRead        ql_func.o(app_start.lib)
    0x08643798   0x0000002c   Code   RO    72     i.Ql_busSubscribe   ql_func.o(app_start.lib)
    0x086437c4   0x0000002c   Code   RO    73     i.Ql_busUnSubscribe  ql_func.o(app_start.lib)
    0x086437f0   0x0000002c   Code   RO    74     i.Ql_busWrite       ql_func.o(app_start.lib)
    0x0864381c   0x00000024   Code   RO    69     i.Ql_eintMask       ql_func.o(app_start.lib)
    0x08643840   0x00000024   Code   RO    68     i.Ql_eintRead       ql_func.o(app_start.lib)
    0x08643864   0x00000024   Code   RO    70     i.Ql_eintSetPolarity  ql_func.o(app_start.lib)
    0x08643888   0x00000020   Code   RO     5     i.Ql_itoa           ql_func.o(app_start.lib)
    0x086438a8   0x00000020   Code   RO     6     i.Ql_itof           ql_func.o(app_start.lib)
    0x086438c8   0x00000020   Code   RO    34     i.Ql_memMaxCanAllocSize  ql_func.o(app_start.lib)
    0x086438e8   0x00000020   Code   RO    35     i.Ql_memTotalLeftSize  ql_func.o(app_start.lib)
    0x08643908   0x00000024   Code   RO    17     i.Ql_memcmp         ql_func.o(app_start.lib)
    0x0864392c   0x00000020   Code   RO    16     i.Ql_memcpy         ql_func.o(app_start.lib)
    0x0864394c   0x00000020   Code   RO    18     i.Ql_memmove        ql_func.o(app_start.lib)
    0x0864396c   0x00000020   Code   RO    15     i.Ql_memset         ql_func.o(app_start.lib)
    0x0864398c   0x00000028   Code   RO   194     i.Ql_osChangeTaskPriority  ql_func.o(app_start.lib)
    0x086439b4   0x00000028   Code   RO   184     i.Ql_osCreateMutex  ql_func.o(app_start.lib)
    0x086439dc   0x00000028   Code   RO   187     i.Ql_osCreateSemaphore  ql_func.o(app_start.lib)
    0x08643a04   0x00000028   Code   RO   193     i.Ql_osGetCurrenTaskRemainStackSize  ql_func.o(app_start.lib)
    0x08643a2c   0x00000028   Code   RO   192     i.Ql_osGetCurrentTaskPriority  ql_func.o(app_start.lib)
    0x08643a54   0x00000024   Code   RO   186     i.Ql_osGiveMutex    ql_func.o(app_start.lib)
    0x08643a78   0x00000024   Code   RO   189     i.Ql_osGiveSemaphore  ql_func.o(app_start.lib)
    0x08643a9c   0x0000002c   Code   RO   183     i.Ql_osSendEvent    ql_func.o(app_start.lib)
    0x08643ac8   0x00000024   Code   RO   185     i.Ql_osTakeMutex    ql_func.o(app_start.lib)
    0x08643aec   0x00000028   Code   RO   188     i.Ql_osTakeSemaphore  ql_func.o(app_start.lib)
    0x08643b14   0x00000028   Code   RO    67     i.Ql_pinControl     ql_func.o(app_start.lib)
    0x08643b3c   0x00000028   Code   RO    64     i.Ql_pinQueryMode   ql_func.o(app_start.lib)
    0x08643b64   0x00000028   Code   RO    65     i.Ql_pinRead        ql_func.o(app_start.lib)
    0x08643b8c   0x00000028   Code   RO    62     i.Ql_pinSubscribe   ql_func.o(app_start.lib)
    0x08643bb4   0x00000028   Code   RO    63     i.Ql_pinUnSubscribe  ql_func.o(app_start.lib)
    0x08643bdc   0x00000028   Code   RO    66     i.Ql_pinWrite       ql_func.o(app_start.lib)
    0x08643c04   0x00000020   Code   RO    10     i.Ql_strcat         ql_func.o(app_start.lib)
    0x08643c24   0x00000020   Code   RO    20     i.Ql_strchr         ql_func.o(app_start.lib)
    0x08643c44   0x00000024   Code   RO    13     i.Ql_strcmp         ql_func.o(app_start.lib)
    0x08643c68   0x00000020   Code   RO     8     i.Ql_strcpy         ql_func.o(app_start.lib)
    0x08643c88   0x00000020   Code   RO    12     i.Ql_strlen         ql_func.o(app_start.lib)
    0x08643ca8   0x00000020   Code   RO    11     i.Ql_strncat        ql_func.o(app_start.lib)
    0x08643cc8   0x00000024   Code   RO    14     i.Ql_strncmp        ql_func.o(app_start.lib)
    0x08643cec   0x00000020   Code   RO     9     i.Ql_strncpy        ql_func.o(app_start.lib)
    0x08643d0c   0x00000020   Code   RO    19     i.Ql_strstr         ql_func.o(app_start.lib)
    0x08643d2c   0x00000010   Code   RO   436     i.RESETFLAG         example_tcpip.o
    0x08643d3c   0x00000010   Code   RO   435     i.SETFLAG           example_tcpip.o
    0x08643d4c   0x0000030c   Code   RO   440     i.SendAtCmd         example_tcpip.o
    0x08644058   0x000000c8   Code   RO   445     i.SendAtCmd_Message_Read  example_tcpip.o
    0x08644120   0x000000b0   Code   RO   437     i.SendGPS_Setting   example_tcpip.o
    0x086441d0   0x000000a8   Code   RO   458     i.Send_GSMVersionString  example_tcpip.o
    0x08644278   0x00000074   Code   RO   447     i.Socket_DataSend_Function  example_tcpip.o
    0x086442ec   0x00000464   Code   RO   444     i.Uart1_setting_received  example_tcpip.o
    0x08644750   0x00000498   Code   RO   459     i.adcsend_function  example_tcpip.o
    0x08644be8   0x000004e0   Code   RO   461     i.filesystem_function  example_tcpip.o
    0x086450c8   0x00000030   Code   RO   454     i.io_send           example_tcpip.o
    0x086450f8   0x00000508   Code   RO   453     i.iosend_function   example_tcpip.o
    0x08645600   0x00000028   Code   RO   462     i.key_send          example_tcpip.o
    0x08645628   0x00000068   Code   RO   451     i.openfile1         example_tcpip.o
    0x08645690   0x00000068   Code   RO   450     i.openfile2         example_tcpip.o
    0x086456f8   0x00000eac   Code   RO   413     i.ql_InitVFunc      ql_main.o(app_start.lib)
    0x086465a4   0x00001334   Code   RO   467     i.ql_entry          example_tcpip.o
    0x086478d8   0x00000068   Code   RO   414     i.ql_main           ql_main.o(app_start.lib)
    0x08647940   0x00000130   Code   RO   442     i.save_new_Apn_settings  example_tcpip.o
    0x08647a70   0x0000012c   Code   RO   441     i.save_new_OwnNumber_settings  example_tcpip.o
    0x08647b9c   0x00000120   Code   RO   439     i.save_new_Update_timer_settings  example_tcpip.o
    0x08647cbc   0x00000308   Code   RO   443     i.save_new_ip_settings  example_tcpip.o
    0x08647fc4   0x00000004   Code   RO   432     i.subusr1_func      subusr1.o
    0x08647fc8   0x0000033c   Code   RO   457     i.uart1_datahandler  example_tcpip.o
    0x08648304   0x000005a0   Code   RO   463     i.uart2_datahandler  example_tcpip.o
    0x086488a4   0x00000004   Code   RO   428     i.user1_func        user1.o
    0x086488a8   0x00000004   Code   RO   430     i.user2_func        user2.o
    0x086488ac   0x0000009c   Code   RO     1     init                image2dlms.o(app_start.lib)
    0x08648948   0x000028a8   Data   RO   207     .constdata          ql_func.o(app_start.lib)
    0x0864b1f0   0x0000005c   Data   RO   415     .constdata          ql_main.o(app_start.lib)
    0x0864b24c   0x00000018   Data   RO   420     .constdata          ql_customer_gpio.o
    0x0864b264   0x000003f4   Data   RO   421     .constdata          ql_customer_gpio.o
    0x0864b658   0x00000004   Data   RO   422     .constdata          ql_customer_config.o
    0x0864b65c   0x00000004   Data   RO   423     .constdata          ql_customer_config.o
    0x0864b660   0x00000004   Data   RO   424     .constdata          ql_customer_config.o
    0x0864b664   0x00000004   Data   RO   425     .constdata          ql_customer_config.o
    0x0864b668   0x00000e94   Data   RO   477     .constdata          example_tcpip.o
    0x0864c4fc   0x0000012b   Data   RO   590     .constdata          defsig.o(c_t__un.l)


    Execution Region EXTSRAMCPU (Base: 0x00200000, Size: 0x00004324, Max: 0x00200000, ABSOLUTE)

    Base Addr    Size         Type   Attr  Idx  E Section Name        Object

    0x00200000   0x000000d8   Data   RW   476     .data               example_tcpip.o
    0x002000d8   0x00000001   Data   RW   480     .data               example_tcpip.o
    0x002000d9   0x00000001   Data   RW   485     .data               example_tcpip.o
    0x002000da   0x0000001b   Data   RW   486     .data               example_tcpip.o
    0x002000f5   0x00000005   Data   RW   487     .data               example_tcpip.o
    0x002000fa   0x00000010   Data   RW   488     .data               example_tcpip.o
    0x0020010a   0x00000002   PAD
    0x0020010c   0x00000328   Zero   RW   208     .bss                ql_func.o(app_start.lib)
    0x00200434   0x00000004   Zero   RW   209     .bss                ql_func.o(app_start.lib)
    0x00200438   0x00000004   Zero   RW   210     .bss                ql_func.o(app_start.lib)
    0x0020043c   0x00000010   Zero   RW   416     .bss                ql_main.o(app_start.lib)
    0x0020044c   0x00000010   Zero   RW   426     .bss                ql_customer_config.o
    0x0020045c   0x00002800   Zero   RW   427     .bss                ql_customer_config.o
    0x00202c5c   0x0000158c   Zero   RW   478     .bss                example_tcpip.o
    0x002041e8   0x00000001   Zero   RW   479     .bss                example_tcpip.o
    0x002041e9   0x00000001   PAD
    0x002041ea   0x00000002   Zero   RW   481     .bss                example_tcpip.o
    0x002041ec   0x00000001   Zero   RW   482     .bss                example_tcpip.o
    0x002041ed   0x00000003   PAD
    0x002041f0   0x00000004   Zero   RW   483     .bss                example_tcpip.o
    0x002041f4   0x00000004   Zero   RW   484     .bss                example_tcpip.o
    0x002041f8   0x00000004   Zero   RW   489     .bss                example_tcpip.o
    0x002041fc   0x00000004   Zero   RW   490     .bss                example_tcpip.o
    0x00204200   0x00000052   Zero   RW   491     .bss                example_tcpip.o
    0x00204252   0x00000052   Zero   RW   492     .bss                example_tcpip.o
    0x002042a4   0x00000027   Zero   RW   493     .bss                example_tcpip.o
    0x002042cb   0x00000001   PAD
    0x002042cc   0x00000004   Zero   RW   494     .bss                example_tcpip.o
    0x002042d0   0x00000004   Zero   RW   495     .bss                example_tcpip.o
    0x002042d4   0x00000004   Zero   RW   496     .bss                example_tcpip.o
    0x002042d8   0x00000004   Zero   RW   497     .bss                example_tcpip.o
    0x002042dc   0x00000006   Zero   RW   498     .bss                example_tcpip.o
    0x002042e2   0x00000002   Zero   RW   499     .bss                example_tcpip.o
    0x002042e4   0x0000000f   Zero   RW   500     .bss                example_tcpip.o
    0x002042f3   0x00000001   PAD
    0x002042f4   0x00000004   Zero   RW   501     .bss                example_tcpip.o
    0x002042f8   0x00000001   Zero   RW   502     .bss                example_tcpip.o
    0x002042f9   0x00000001   Zero   RW   503     .bss                example_tcpip.o
    0x002042fa   0x00000001   Zero   RW   504     .bss                example_tcpip.o
    0x002042fb   0x00000001   Zero   RW   505     .bss                example_tcpip.o
    0x002042fc   0x00000001   Zero   RW   506     .bss                example_tcpip.o
    0x002042fd   0x00000001   Zero   RW   507     .bss                example_tcpip.o
    0x002042fe   0x00000001   Zero   RW   508     .bss                example_tcpip.o
    0x002042ff   0x00000001   Zero   RW   509     .bss                example_tcpip.o
    0x00204300   0x00000001   Zero   RW   510     .bss                example_tcpip.o
    0x00204301   0x00000001   Zero   RW   511     .bss                example_tcpip.o
    0x00204302   0x00000001   Zero   RW   512     .bss                example_tcpip.o
    0x00204303   0x00000001   Zero   RW   513     .bss                example_tcpip.o
    0x00204304   0x00000001   Zero   RW   514     .bss                example_tcpip.o
    0x00204305   0x00000001   Zero   RW   515     .bss                example_tcpip.o
    0x00204306   0x0000000a   Zero   RW   516     .bss                example_tcpip.o
    0x00204310   0x0000000a   Zero   RW   517     .bss                example_tcpip.o
    0x0020431a   0x0000000a   Zero   RW   518     .bss                example_tcpip.o


    Execution Region NV_EXTSRAM (Base: 0x00204324, Size: 0x00000000, Max: 0xffffffff, ABSOLUTE)

    **** No section assigned to this execution region ****



  Load Region LR$$Debug (Base: 0x00000000, Size: 0x00000000, Max: 0xffffffff, ABSOLUTE)

    Execution Region ER$$Debug (Base: 0x00000000, Size: 0x00000000, Max: 0xffffffff, ABSOLUTE)

    Base Addr    Size         Type   Attr  Idx  E Section Name        Object

    0x00000000   0x00000010   Dbug   RW     4     .debug_abbrev       image2dlms.o(app_start.lib)
    0x00000000   0x00000050   Dbug   RW   211     .debug_frame        ql_func.o(app_start.lib)
    0x00000050   0x00000050   Dbug   RW   212     .debug_frame        ql_func.o(app_start.lib)
    0x000000a0   0x00000050   Dbug   RW   213     .debug_frame        ql_func.o(app_start.lib)
    0x000000f0   0x00000050   Dbug   RW   214     .debug_frame        ql_func.o(app_start.lib)
    0x00000140   0x00000050   Dbug   RW   215     .debug_frame        ql_func.o(app_start.lib)
    0x00000190   0x00000050   Dbug   RW   216     .debug_frame        ql_func.o(app_start.lib)
    0x000001e0   0x00000050   Dbug   RW   217     .debug_frame        ql_func.o(app_start.lib)
    0x00000230   0x00000050   Dbug   RW   218     .debug_frame        ql_func.o(app_start.lib)
    0x00000280   0x00000050   Dbug   RW   219     .debug_frame        ql_func.o(app_start.lib)
    0x000002d0   0x00000050   Dbug   RW   220     .debug_frame        ql_func.o(app_start.lib)
    0x00000320   0x00000050   Dbug   RW   221     .debug_frame        ql_func.o(app_start.lib)
    0x00000370   0x00000050   Dbug   RW   222     .debug_frame        ql_func.o(app_start.lib)
    0x000003c0   0x00000050   Dbug   RW   223     .debug_frame        ql_func.o(app_start.lib)
    0x00000410   0x00000050   Dbug   RW   224     .debug_frame        ql_func.o(app_start.lib)
    0x00000460   0x00000050   Dbug   RW   225     .debug_frame        ql_func.o(app_start.lib)
    0x000004b0   0x00000050   Dbug   RW   226     .debug_frame        ql_func.o(app_start.lib)
    0x00000500   0x00000050   Dbug   RW   227     .debug_frame        ql_func.o(app_start.lib)
    0x00000550   0x00000050   Dbug   RW   228     .debug_frame        ql_func.o(app_start.lib)
    0x000005a0   0x00000050   Dbug   RW   229     .debug_frame        ql_func.o(app_start.lib)
    0x000005f0   0x00000050   Dbug   RW   230     .debug_frame        ql_func.o(app_start.lib)
    0x00000640   0x00000050   Dbug   RW   231     .debug_frame        ql_func.o(app_start.lib)
    0x00000690   0x00000050   Dbug   RW   232     .debug_frame        ql_func.o(app_start.lib)
    0x000006e0   0x00000050   Dbug   RW   233     .debug_frame        ql_func.o(app_start.lib)
    0x00000730   0x00000050   Dbug   RW   234     .debug_frame        ql_func.o(app_start.lib)
    0x00000780   0x00000050   Dbug   RW   235     .debug_frame        ql_func.o(app_start.lib)
    0x000007d0   0x00000058   Dbug   RW   236     .debug_frame        ql_func.o(app_start.lib)
    0x00000828   0x00000050   Dbug   RW   237     .debug_frame        ql_func.o(app_start.lib)
    0x00000878   0x00000050   Dbug   RW   238     .debug_frame        ql_func.o(app_start.lib)
    0x000008c8   0x00000050   Dbug   RW   239     .debug_frame        ql_func.o(app_start.lib)
    0x00000918   0x00000050   Dbug   RW   240     .debug_frame        ql_func.o(app_start.lib)
    0x00000968   0x00000050   Dbug   RW   241     .debug_frame        ql_func.o(app_start.lib)
    0x000009b8   0x00000050   Dbug   RW   242     .debug_frame        ql_func.o(app_start.lib)
    0x00000a08   0x00000050   Dbug   RW   243     .debug_frame        ql_func.o(app_start.lib)
    0x00000a58   0x00000050   Dbug   RW   244     .debug_frame        ql_func.o(app_start.lib)
    0x00000aa8   0x00000050   Dbug   RW   245     .debug_frame        ql_func.o(app_start.lib)
    0x00000af8   0x00000050   Dbug   RW   246     .debug_frame        ql_func.o(app_start.lib)
    0x00000b48   0x00000050   Dbug   RW   247     .debug_frame        ql_func.o(app_start.lib)
    0x00000b98   0x00000050   Dbug   RW   248     .debug_frame        ql_func.o(app_start.lib)
    0x00000be8   0x00000050   Dbug   RW   249     .debug_frame        ql_func.o(app_start.lib)
    0x00000c38   0x00000050   Dbug   RW   250     .debug_frame        ql_func.o(app_start.lib)
    0x00000c88   0x00000050   Dbug   RW   251     .debug_frame        ql_func.o(app_start.lib)
    0x00000cd8   0x00000050   Dbug   RW   252     .debug_frame        ql_func.o(app_start.lib)
    0x00000d28   0x00000050   Dbug   RW   253     .debug_frame        ql_func.o(app_start.lib)
    0x00000d78   0x00000050   Dbug   RW   254     .debug_frame        ql_func.o(app_start.lib)
    0x00000dc8   0x00000050   Dbug   RW   255     .debug_frame        ql_func.o(app_start.lib)
    0x00000e18   0x00000050   Dbug   RW   256     .debug_frame        ql_func.o(app_start.lib)
    0x00000e68   0x00000050   Dbug   RW   257     .debug_frame        ql_func.o(app_start.lib)
    0x00000eb8   0x00000050   Dbug   RW   258     .debug_frame        ql_func.o(app_start.lib)
    0x00000f08   0x0000004c   Dbug   RW   259     .debug_frame        ql_func.o(app_start.lib)
    0x00000f54   0x0000004c   Dbug   RW   260     .debug_frame        ql_func.o(app_start.lib)
    0x00000fa0   0x00000050   Dbug   RW   261     .debug_frame        ql_func.o(app_start.lib)
    0x00000ff0   0x00000050   Dbug   RW   262     .debug_frame        ql_func.o(app_start.lib)
    0x00001040   0x00000050   Dbug   RW   263     .debug_frame        ql_func.o(app_start.lib)
    0x00001090   0x00000050   Dbug   RW   264     .debug_frame        ql_func.o(app_start.lib)
    0x000010e0   0x00000050   Dbug   RW   265     .debug_frame        ql_func.o(app_start.lib)
    0x00001130   0x00000050   Dbug   RW   266     .debug_frame        ql_func.o(app_start.lib)
    0x00001180   0x00000050   Dbug   RW   267     .debug_frame        ql_func.o(app_start.lib)
    0x000011d0   0x00000050   Dbug   RW   268     .debug_frame        ql_func.o(app_start.lib)
    0x00001220   0x00000050   Dbug   RW   269     .debug_frame        ql_func.o(app_start.lib)
    0x00001270   0x00000050   Dbug   RW   270     .debug_frame        ql_func.o(app_start.lib)
    0x000012c0   0x00000050   Dbug   RW   271     .debug_frame        ql_func.o(app_start.lib)
    0x00001310   0x00000050   Dbug   RW   272     .debug_frame        ql_func.o(app_start.lib)
    0x00001360   0x00000050   Dbug   RW   273     .debug_frame        ql_func.o(app_start.lib)
    0x000013b0   0x00000050   Dbug   RW   274     .debug_frame        ql_func.o(app_start.lib)
    0x00001400   0x00000050   Dbug   RW   275     .debug_frame        ql_func.o(app_start.lib)
    0x00001450   0x00000050   Dbug   RW   276     .debug_frame        ql_func.o(app_start.lib)
    0x000014a0   0x00000050   Dbug   RW   277     .debug_frame        ql_func.o(app_start.lib)
    0x000014f0   0x00000050   Dbug   RW   278     .debug_frame        ql_func.o(app_start.lib)
    0x00001540   0x00000050   Dbug   RW   279     .debug_frame        ql_func.o(app_start.lib)
    0x00001590   0x00000050   Dbug   RW   280     .debug_frame        ql_func.o(app_start.lib)
    0x000015e0   0x00000050   Dbug   RW   281     .debug_frame        ql_func.o(app_start.lib)
    0x00001630   0x00000050   Dbug   RW   282     .debug_frame        ql_func.o(app_start.lib)
    0x00001680   0x00000050   Dbug   RW   283     .debug_frame        ql_func.o(app_start.lib)
    0x000016d0   0x00000050   Dbug   RW   284     .debug_frame        ql_func.o(app_start.lib)
    0x00001720   0x00000050   Dbug   RW   285     .debug_frame        ql_func.o(app_start.lib)
    0x00001770   0x0000004c   Dbug   RW   286     .debug_frame        ql_func.o(app_start.lib)
    0x000017bc   0x00000050   Dbug   RW   287     .debug_frame        ql_func.o(app_start.lib)
    0x0000180c   0x00000050   Dbug   RW   288     .debug_frame        ql_func.o(app_start.lib)
    0x0000185c   0x00000050   Dbug   RW   289     .debug_frame        ql_func.o(app_start.lib)
    0x000018ac   0x00000050   Dbug   RW   290     .debug_frame        ql_func.o(app_start.lib)
    0x000018fc   0x00000050   Dbug   RW   291     .debug_frame        ql_func.o(app_start.lib)
    0x0000194c   0x00000050   Dbug   RW   292     .debug_frame        ql_func.o(app_start.lib)
    0x0000199c   0x00000050   Dbug   RW   293     .debug_frame        ql_func.o(app_start.lib)
    0x000019ec   0x00000050   Dbug   RW   294     .debug_frame        ql_func.o(app_start.lib)
    0x00001a3c   0x00000050   Dbug   RW   295     .debug_frame        ql_func.o(app_start.lib)
    0x00001a8c   0x00000050   Dbug   RW   296     .debug_frame        ql_func.o(app_start.lib)
    0x00001adc   0x00000050   Dbug   RW   297     .debug_frame        ql_func.o(app_start.lib)
    0x00001b2c   0x00000050   Dbug   RW   298     .debug_frame        ql_func.o(app_start.lib)
    0x00001b7c   0x00000050   Dbug   RW   299     .debug_frame        ql_func.o(app_start.lib)
    0x00001bcc   0x0000004c   Dbug   RW   300     .debug_frame        ql_func.o(app_start.lib)
    0x00001c18   0x00000050   Dbug   RW   301     .debug_frame        ql_func.o(app_start.lib)
    0x00001c68   0x00000050   Dbug   RW   302     .debug_frame        ql_func.o(app_start.lib)
    0x00001cb8   0x00000050   Dbug   RW   303     .debug_frame        ql_func.o(app_start.lib)
    0x00001d08   0x00000050   Dbug   RW   304     .debug_frame        ql_func.o(app_start.lib)
    0x00001d58   0x00000050   Dbug   RW   305     .debug_frame        ql_func.o(app_start.lib)
    0x00001da8   0x00000050   Dbug   RW   306     .debug_frame        ql_func.o(app_start.lib)
    0x00001df8   0x00000050   Dbug   RW   307     .debug_frame        ql_func.o(app_start.lib)
    0x00001e48   0x00000050   Dbug   RW   308     .debug_frame        ql_func.o(app_start.lib)
    0x00001e98   0x00000050   Dbug   RW   309     .debug_frame        ql_func.o(app_start.lib)
    0x00001ee8   0x00000050   Dbug   RW   310     .debug_frame        ql_func.o(app_start.lib)
    0x00001f38   0x00000050   Dbug   RW   311     .debug_frame        ql_func.o(app_start.lib)
    0x00001f88   0x00000050   Dbug   RW   312     .debug_frame        ql_func.o(app_start.lib)
    0x00001fd8   0x00000050   Dbug   RW   313     .debug_frame        ql_func.o(app_start.lib)
    0x00002028   0x00000050   Dbug   RW   314     .debug_frame        ql_func.o(app_start.lib)
    0x00002078   0x00000050   Dbug   RW   315     .debug_frame        ql_func.o(app_start.lib)
    0x000020c8   0x00000050   Dbug   RW   316     .debug_frame        ql_func.o(app_start.lib)
    0x00002118   0x00000050   Dbug   RW   317     .debug_frame        ql_func.o(app_start.lib)
    0x00002168   0x00000050   Dbug   RW   318     .debug_frame        ql_func.o(app_start.lib)
    0x000021b8   0x0000004c   Dbug   RW   319     .debug_frame        ql_func.o(app_start.lib)
    0x00002204   0x00000050   Dbug   RW   320     .debug_frame        ql_func.o(app_start.lib)
    0x00002254   0x00000050   Dbug   RW   321     .debug_frame        ql_func.o(app_start.lib)
    0x000022a4   0x00000050   Dbug   RW   322     .debug_frame        ql_func.o(app_start.lib)
    0x000022f4   0x00000050   Dbug   RW   323     .debug_frame        ql_func.o(app_start.lib)
    0x00002344   0x00000050   Dbug   RW   324     .debug_frame        ql_func.o(app_start.lib)
    0x00002394   0x00000050   Dbug   RW   325     .debug_frame        ql_func.o(app_start.lib)
    0x000023e4   0x00000050   Dbug   RW   326     .debug_frame        ql_func.o(app_start.lib)
    0x00002434   0x00000050   Dbug   RW   327     .debug_frame        ql_func.o(app_start.lib)
    0x00002484   0x00000050   Dbug   RW   328     .debug_frame        ql_func.o(app_start.lib)
    0x000024d4   0x0000004c   Dbug   RW   329     .debug_frame        ql_func.o(app_start.lib)
    0x00002520   0x0000004c   Dbug   RW   330     .debug_frame        ql_func.o(app_start.lib)
    0x0000256c   0x0000004c   Dbug   RW   331     .debug_frame        ql_func.o(app_start.lib)
    0x000025b8   0x00000050   Dbug   RW   332     .debug_frame        ql_func.o(app_start.lib)
    0x00002608   0x00000050   Dbug   RW   333     .debug_frame        ql_func.o(app_start.lib)
    0x00002658   0x00000050   Dbug   RW   334     .debug_frame        ql_func.o(app_start.lib)
    0x000026a8   0x00000050   Dbug   RW   335     .debug_frame        ql_func.o(app_start.lib)
    0x000026f8   0x00000050   Dbug   RW   336     .debug_frame        ql_func.o(app_start.lib)
    0x00002748   0x0000004c   Dbug   RW   337     .debug_frame        ql_func.o(app_start.lib)
    0x00002794   0x00000050   Dbug   RW   338     .debug_frame        ql_func.o(app_start.lib)
    0x000027e4   0x00000050   Dbug   RW   339     .debug_frame        ql_func.o(app_start.lib)
    0x00002834   0x00000050   Dbug   RW   340     .debug_frame        ql_func.o(app_start.lib)
    0x00002884   0x00000050   Dbug   RW   341     .debug_frame        ql_func.o(app_start.lib)
    0x000028d4   0x00000050   Dbug   RW   342     .debug_frame        ql_func.o(app_start.lib)
    0x00002924   0x00000050   Dbug   RW   343     .debug_frame        ql_func.o(app_start.lib)
    0x00002974   0x00000050   Dbug   RW   344     .debug_frame        ql_func.o(app_start.lib)
    0x000029c4   0x00000050   Dbug   RW   345     .debug_frame        ql_func.o(app_start.lib)
    0x00002a14   0x00000050   Dbug   RW   346     .debug_frame        ql_func.o(app_start.lib)
    0x00002a64   0x00000050   Dbug   RW   347     .debug_frame        ql_func.o(app_start.lib)
    0x00002ab4   0x00000050   Dbug   RW   348     .debug_frame        ql_func.o(app_start.lib)
    0x00002b04   0x00000050   Dbug   RW   349     .debug_frame        ql_func.o(app_start.lib)
    0x00002b54   0x0000004c   Dbug   RW   350     .debug_frame        ql_func.o(app_start.lib)
    0x00002ba0   0x0000004c   Dbug   RW   351     .debug_frame        ql_func.o(app_start.lib)
    0x00002bec   0x00000050   Dbug   RW   352     .debug_frame        ql_func.o(app_start.lib)
    0x00002c3c   0x00000050   Dbug   RW   353     .debug_frame        ql_func.o(app_start.lib)
    0x00002c8c   0x00000050   Dbug   RW   354     .debug_frame        ql_func.o(app_start.lib)
    0x00002cdc   0x00000054   Dbug   RW   355     .debug_frame        ql_func.o(app_start.lib)
    0x00002d30   0x00000050   Dbug   RW   356     .debug_frame        ql_func.o(app_start.lib)
    0x00002d80   0x00000050   Dbug   RW   357     .debug_frame        ql_func.o(app_start.lib)
    0x00002dd0   0x0000004c   Dbug   RW   358     .debug_frame        ql_func.o(app_start.lib)
    0x00002e1c   0x00000050   Dbug   RW   359     .debug_frame        ql_func.o(app_start.lib)
    0x00002e6c   0x00000050   Dbug   RW   360     .debug_frame        ql_func.o(app_start.lib)
    0x00002ebc   0x00000050   Dbug   RW   361     .debug_frame        ql_func.o(app_start.lib)
    0x00002f0c   0x0000004c   Dbug   RW   362     .debug_frame        ql_func.o(app_start.lib)
    0x00002f58   0x00000050   Dbug   RW   363     .debug_frame        ql_func.o(app_start.lib)
    0x00002fa8   0x00000050   Dbug   RW   364     .debug_frame        ql_func.o(app_start.lib)
    0x00002ff8   0x00000050   Dbug   RW   365     .debug_frame        ql_func.o(app_start.lib)
    0x00003048   0x00000050   Dbug   RW   366     .debug_frame        ql_func.o(app_start.lib)
    0x00003098   0x00000050   Dbug   RW   367     .debug_frame        ql_func.o(app_start.lib)
    0x000030e8   0x00000050   Dbug   RW   368     .debug_frame        ql_func.o(app_start.lib)
    0x00003138   0x00000050   Dbug   RW   369     .debug_frame        ql_func.o(app_start.lib)
    0x00003188   0x00000050   Dbug   RW   370     .debug_frame        ql_func.o(app_start.lib)
    0x000031d8   0x00000050   Dbug   RW   371     .debug_frame        ql_func.o(app_start.lib)
    0x00003228   0x00000050   Dbug   RW   372     .debug_frame        ql_func.o(app_start.lib)
    0x00003278   0x00000050   Dbug   RW   373     .debug_frame        ql_func.o(app_start.lib)
    0x000032c8   0x00000050   Dbug   RW   374     .debug_frame        ql_func.o(app_start.lib)
    0x00003318   0x00000050   Dbug   RW   375     .debug_frame        ql_func.o(app_start.lib)
    0x00003368   0x00000050   Dbug   RW   376     .debug_frame        ql_func.o(app_start.lib)
    0x000033b8   0x00000050   Dbug   RW   377     .debug_frame        ql_func.o(app_start.lib)
    0x00003408   0x00000050   Dbug   RW   378     .debug_frame        ql_func.o(app_start.lib)
    0x00003458   0x00000050   Dbug   RW   379     .debug_frame        ql_func.o(app_start.lib)
    0x000034a8   0x00000050   Dbug   RW   380     .debug_frame        ql_func.o(app_start.lib)
    0x000034f8   0x00000050   Dbug   RW   381     .debug_frame        ql_func.o(app_start.lib)
    0x00003548   0x00000050   Dbug   RW   382     .debug_frame        ql_func.o(app_start.lib)
    0x00003598   0x00000050   Dbug   RW   383     .debug_frame        ql_func.o(app_start.lib)
    0x000035e8   0x00000050   Dbug   RW   384     .debug_frame        ql_func.o(app_start.lib)
    0x00003638   0x00000050   Dbug   RW   385     .debug_frame        ql_func.o(app_start.lib)
    0x00003688   0x00000050   Dbug   RW   386     .debug_frame        ql_func.o(app_start.lib)
    0x000036d8   0x00000050   Dbug   RW   387     .debug_frame        ql_func.o(app_start.lib)
    0x00003728   0x00000050   Dbug   RW   388     .debug_frame        ql_func.o(app_start.lib)
    0x00003778   0x00000050   Dbug   RW   389     .debug_frame        ql_func.o(app_start.lib)
    0x000037c8   0x00000050   Dbug   RW   390     .debug_frame        ql_func.o(app_start.lib)
    0x00003818   0x00000050   Dbug   RW   391     .debug_frame        ql_func.o(app_start.lib)
    0x00003868   0x00000050   Dbug   RW   392     .debug_frame        ql_func.o(app_start.lib)
    0x000038b8   0x00000050   Dbug   RW   393     .debug_frame        ql_func.o(app_start.lib)
    0x00003908   0x00000050   Dbug   RW   394     .debug_frame        ql_func.o(app_start.lib)
    0x00003958   0x00000050   Dbug   RW   395     .debug_frame        ql_func.o(app_start.lib)
    0x000039a8   0x00000050   Dbug   RW   396     .debug_frame        ql_func.o(app_start.lib)
    0x000039f8   0x00000050   Dbug   RW   397     .debug_frame        ql_func.o(app_start.lib)
    0x00003a48   0x00000050   Dbug   RW   398     .debug_frame        ql_func.o(app_start.lib)
    0x00003a98   0x00000050   Dbug   RW   399     .debug_frame        ql_func.o(app_start.lib)
    0x00003ae8   0x00000050   Dbug   RW   400     .debug_frame        ql_func.o(app_start.lib)
    0x00003b38   0x00000050   Dbug   RW   401     .debug_frame        ql_func.o(app_start.lib)
    0x00003b88   0x00000050   Dbug   RW   402     .debug_frame        ql_func.o(app_start.lib)
    0x00003bd8   0x00000050   Dbug   RW   403     .debug_frame        ql_func.o(app_start.lib)
    0x00003c28   0x00000050   Dbug   RW   404     .debug_frame        ql_func.o(app_start.lib)
    0x00003c78   0x00000050   Dbug   RW   405     .debug_frame        ql_func.o(app_start.lib)
    0x00003cc8   0x00000050   Dbug   RW   406     .debug_frame        ql_func.o(app_start.lib)
    0x00003d18   0x00000050   Dbug   RW   407     .debug_frame        ql_func.o(app_start.lib)
    0x00003d68   0x00000050   Dbug   RW   408     .debug_frame        ql_func.o(app_start.lib)
    0x00003db8   0x00000050   Dbug   RW   409     .debug_frame        ql_func.o(app_start.lib)
    0x00003e08   0x00000050   Dbug   RW   410     .debug_frame        ql_func.o(app_start.lib)
    0x00003e58   0x00000050   Dbug   RW   411     .debug_frame        ql_func.o(app_start.lib)
    0x00003ea8   0x00000050   Dbug   RW   412     .debug_frame        ql_func.o(app_start.lib)
    0x00003ef8   0x00000058   Dbug   RW   418     .debug_frame        ql_main.o(app_start.lib)
    0x00003f50   0x00000058   Dbug   RW   419     .debug_frame        ql_main.o(app_start.lib)
    0x00003fa8   0x0000003c   Dbug   RW   429     .debug_frame        user1.o
    0x00003fe4   0x0000003c   Dbug   RW   431     .debug_frame        user2.o
    0x00004020   0x0000003c   Dbug   RW   433     .debug_frame        subusr1.o
    0x0000405c   0x0000003c   Dbug   RW   519     .debug_frame        example_tcpip.o
    0x00004098   0x0000003c   Dbug   RW   520     .debug_frame        example_tcpip.o
    0x000040d4   0x0000003c   Dbug   RW   521     .debug_frame        example_tcpip.o
    0x00004110   0x0000004c   Dbug   RW   522     .debug_frame        example_tcpip.o
    0x0000415c   0x00000050   Dbug   RW   523     .debug_frame        example_tcpip.o
    0x000041ac   0x00000054   Dbug   RW   524     .debug_frame        example_tcpip.o
    0x00004200   0x00000054   Dbug   RW   525     .debug_frame        example_tcpip.o
    0x00004254   0x00000054   Dbug   RW   526     .debug_frame        example_tcpip.o
    0x000042a8   0x00000054   Dbug   RW   527     .debug_frame        example_tcpip.o
    0x000042fc   0x00000054   Dbug   RW   528     .debug_frame        example_tcpip.o
    0x00004350   0x00000054   Dbug   RW   529     .debug_frame        example_tcpip.o
    0x000043a4   0x00000054   Dbug   RW   530     .debug_frame        example_tcpip.o
    0x000043f8   0x0000005c   Dbug   RW   531     .debug_frame        example_tcpip.o
    0x00004454   0x00000054   Dbug   RW   532     .debug_frame        example_tcpip.o
    0x000044a8   0x0000004c   Dbug   RW   533     .debug_frame        example_tcpip.o
    0x000044f4   0x0000004c   Dbug   RW   534     .debug_frame        example_tcpip.o
    0x00004540   0x00000050   Dbug   RW   535     .debug_frame        example_tcpip.o
    0x00004590   0x00000050   Dbug   RW   536     .debug_frame        example_tcpip.o
    0x000045e0   0x00000054   Dbug   RW   537     .debug_frame        example_tcpip.o
    0x00004634   0x00000054   Dbug   RW   538     .debug_frame        example_tcpip.o
    0x00004688   0x0000004c   Dbug   RW   539     .debug_frame        example_tcpip.o
    0x000046d4   0x00000054   Dbug   RW   540     .debug_frame        example_tcpip.o
    0x00004728   0x00000054   Dbug   RW   541     .debug_frame        example_tcpip.o
    0x0000477c   0x0000005c   Dbug   RW   542     .debug_frame        example_tcpip.o
    0x000047d8   0x0000004c   Dbug   RW   543     .debug_frame        example_tcpip.o
    0x00004824   0x00000054   Dbug   RW   544     .debug_frame        example_tcpip.o
    0x00004878   0x00000050   Dbug   RW   545     .debug_frame        example_tcpip.o
    0x000048c8   0x00000054   Dbug   RW   546     .debug_frame        example_tcpip.o
    0x0000491c   0x0000004c   Dbug   RW   547     .debug_frame        example_tcpip.o
    0x00004968   0x0000005c   Dbug   RW   548     .debug_frame        example_tcpip.o
    0x000049c4   0x0000005c   Dbug   RW   549     .debug_frame        example_tcpip.o
    0x00004a20   0x0000005c   Dbug   RW   550     .debug_frame        example_tcpip.o
    0x00004a7c   0x00000054   Dbug   RW   551     .debug_frame        example_tcpip.o
    0x00004ad0   0x0000005c   Dbug   RW   552     .debug_frame        example_tcpip.o
    0x00004b2c   0x0000005c   Dbug   RW   553     .debug_frame        example_tcpip.o
    0x00004b88   0x00000054   Dbug   RW   554     .debug_frame        example_tcpip.o
    0x00004bdc   0x0000005c   Dbug   RW   555     .debug_frame        example_tcpip.o
    0x00004c38   0x0000005c   Dbug   RW   556     .debug_frame        example_tcpip.o
    0x00004c94   0x0000005c   Dbug   RW   557     .debug_frame        example_tcpip.o
    0x00004cf0   0x0000003c   Dbug   RW   558     .debug_frame        example_tcpip.o
    0x00004d2c   0x0000006c   Dbug   RW   559     .debug_frame        example_tcpip.o
    0x00004d98   0x0000005c   Dbug   RW   560     .debug_frame        example_tcpip.o
    0x00004df4   0x00000088   Dbug   RW   562     .debug_frame        lib_init.o(c_t__un.l)
    0x00004e7c   0x00000054   Dbug   RW   564     .debug_frame        rt_memclr_w.o(c_t__un.l)
    0x00004ed0   0x00000054   Dbug   RW   566     .debug_frame        rt_memcpy_w.o(c_t__un.l)
    0x00004f24   0x00000044   Dbug   RW   568     .debug_frame        rt_udiv.o(c_t__un.l)
    0x00004f68   0x00000044   Dbug   RW   570     .debug_frame        rtsdiv10.o(c_t__un.l)
    0x00004fac   0x00000044   Dbug   RW   572     .debug_frame        rtudiv10.o(c_t__un.l)
    0x00004ff0   0x00000044   Dbug   RW   575     .debug_frame        libspace.o(c_t__un.l)
    0x00005034   0x0000003c   Dbug   RW   577     .debug_frame        rt_div0.o(c_t__un.l)
    0x00005070   0x00000050   Dbug   RW   579     .debug_frame        fpinit.o(f_t_p.l)
    0x000050c0   0x00000050   Dbug   RW   581     .debug_frame        rt_fp_status_addr.o(c_t__un.l)
    0x00005110   0x00000054   Dbug   RW   583     .debug_frame        rt_raise.o(c_t__un.l)
    0x00005164   0x00000058   Dbug   RW   585     .debug_frame        __raise.o(c_t__un.l)
    0x000051bc   0x00000044   Dbug   RW   587     .debug_frame        sys_exit.o(c_t__un.l)
    0x00005200   0x00000054   Dbug   RW   591     .debug_frame        defsig.o(c_t__un.l)
    0x00005254   0x00000044   Dbug   RW   594     .debug_frame        use_semi.o(c_t__un.l)
    0x00005298   0x00000050   Dbug   RW   596     .debug_frame        sys_wrch.o(c_t__un.l)
    0x00000000   0x00000058   Dbug   RW     2     .debug_info         image2dlms.o(app_start.lib)
    0x00000000   0x00000058   Dbug   RW     3     .debug_line         image2dlms.o(app_start.lib)

